(lp0
(dp1
S'Q'
p2
S'NAME:Zac Corbit - Your customer suspects that someone has infected some of their machines and is utilizing them as zombies in a botnet. Their IT department has been monitoring network traffic and believes that they have caught some of the command and control traffic. Provided is the encoded data they pulled from their network. Decode it and provide the clear text message as the answer.'
p3
sS'A'
p4
S'codemonkey was here'
p5
sS'D'
p6
S'Z1520Z72446452734374426254645263537a5674426e480x0x6c4a7046684e0x0x77597442674f7442'
p7
sa(dp8
g2
S'NAME:Chris Griffith - Find the string, on the hidden port, running the fun_server.py, extracted from the zipfile, that is the base64 in .data()'
p9
sg4
S'An African or European swallow'
p10
sg6
S'UEsDBAoAAAAAAFmDv0gAAAAAAAAAAAAAAAAIABwAc3VjY2Vzcy9VVAkAA5oBTleaAU5XdXgLAAEE6AMAAAToAwAAUEsDBBQAAAAIAFmDv0hEQj9IlQEAANoDAAAVABwAc3VjY2Vzcy9mdW5fc2VydmVyLnB5VVQJAAOaAU5XmwFOV3V4CwABBOgDAAAE6AMAAIVTXW+CMBR976+4wxfYQCnyaWKyJ3+BezKmQamTpRRTYXH/frcUDX7M3YSWnnvP6cdpRy+T9qgmm1JOuPyGw0+zryUZgffqwbYuSvk5g4/lwks1QkhZHWrVAOviPFK5LOqKEMZg3qfG7BK2Q7oec6ZwrLtSNjb1g9CFwMdwCCn4DrryGQEMxZtWSajyg40opVRQpr++oUII/BN6AOUOZN3AIhdHDigOS9VyqJVBOrlBcF3FOqG/Nd1b1iqNXcgCF6LEBeqnLpyBLEIgiDUaGCSd6kGmm+mdEKW+CwnVnK4Mj+ACJVrKxybDVJINa5L4Timjg2mGukmvEkW9ZOD3RagCsd5EvL6VQwve0ThVtw23rYnlGEfOfvReb/Ijj8OhQwYZb+Kw4HhjkGuNv+pS2qvtXtknB3ZoxAlKadxdO46+Kc9PH++KyKtNkcNpBqe3IDMMnROGIZ4yvCn599JcE6KbNYkLQTxeU/jnJkzczZA+JJgFPZyBBgQfnH4UMq+4Ts/BYqzKS8mYZVy5fm34UlwD4Rn/AlBLAwQUAAAACABZg79Im6KLKcetAACQagIAEQAcAHN1Y2Nlc3MvX19fX19fLnB5VVQJAAOaAU5XmwFOV3V4CwABBOgDAAAE6AMAAMxb/3fbNpL/XX8FVrk8kYlEx3bb3epFyXMTp/VuEvvZTnt3istSJCQxpkgtv0RWt/3f7zMDgAQpOdn2cu+dmtoUOBgAg/nymQH84C8HVZEfzOL0QKYfxXpbLrO090CMHo1EmEVxuhiLqpyP/kYtvX6/3/suK8tEirgQgZgHRSmCNBJFvFqjcRWHeTaa58FKbrL8VsyzXBSrIEnERs5EsF4ncRiUcZYWnjgre9l8LvNC5PKflQSjKC7WQRkuMahwLrOqlIUrNnG5FO8uX4t1QGxLCY7Vep3l5VCUEqMGIBv2AjGr4qQcxan44fr6QlzJ/CNIaW5BFKxLGodmswrSrSiXcR4Rw3Irfrr6/uyAuoyKukvPMBYyXcSpLMRI0CLAPMBS0wWWOo/xg9jzBNNMRHIt00imYQz6rFyCVbkMUvyQvQsWq7gq0SHA0K/jWR7kW6/X+yFbyXWwUKyiLKxWMi1ZRGOxLMv1+OBgxgJfb70sXxz0ei+y9TaPF8tSOKErjp4cfj0Ub4I8lIn4QSbJbbBae73XcSjTQo7Fm7Nr4RRSitdnL07fXp2yECJZBnFSuLyfvXmerYTvz6uyyqXvC2wlpMvr8gvMRdKUerq12Ba9nu8HFRaUg3giBp3BB3gNORZYgnr/xDs8HkXyI71I1Lx0x7PrQa/34Mt+oLsvshW2ORol2DrsGfZ+HoRS/HmOX/aDGZ69fXU+FlfYe2G0zihpKmUkykyssvRWbkdsEKIoaTUzNEZVAvWaSWyjJNXagluAR7U9MvLE9RKmiX+b5VYUNEI2J0JYsyUVKGaUkJ2BMMqoQeZyCBsqwY+og7CsgkSEpPY0myBOHZeNvuT3UHXDmCwBmtyL5Fz4YRL7MKxCOkG+KNxxT+DDGpatS35h9Ot8TVp+QU05U/HbHIphv3H4FX2qAmYy6fOvsXi4zrOFmGZMWtygc3iLF56S0Biupu9yV1CApeLtBVHkqy7mndMfjbS29oe0ajxM+kUJ8fplXkk0LmWyRtMy2whNKdJqNQO7ZgiwmYEUzOBJIzzBUwUfg3zSP3n58vL06qrmQ++xL+GtLEmw+nWbVaFYKdXAMyQbVEk5GWyKRZzL+cAwqyDOq9PLH08vRQCtgAywL21ea8VrnVTwZNYSISHJM1Wc4hSmjr2GhGIiwN6rLgdFm1+o+IVZOt/HrV73q7PXp/1hvXtqlCQLIkFd44X4GCTw+ko3iLg9zAs9bXL6nxzn7cmb08mPJ6/f7Y6WQXp5HMn2iO1x4Jhm1eIzW18G5PmUoSIGcBeyRdnhlUta4KeZwXNmmlBAkziMhDDHRWtmBXjAfhrN5V8+tbFhTQ/HN26PqXMJv51anYa6T9sk4UZsk1TkPv5hjK7VMkU8ZyJPrXtcy7bd7rFwCgoWzmAhPyJUDNyGmDsoe1cvPeXXWgStNx5P1YcuOm5NJZNPjMq9E3nfuOZ1651p1INq+UCiPQzk+ymQBsUoBCnfJ9/n+wPF3JImQqEHcX10/y9i2BlPvmBYoNHD0cGxqNJ4riHUH4lnX3yCPYMHZkEhv/lqKMJFPBQSokq8qgS2GIp5lYZlltHjchWEQ9oP/ECQ062rGEa8XQO9va/3JkM7BSICYGQaeFrmMiAcikd0GIpNkKf4SmyDYomoqBEMszKb/ooGh5Cu0aheRwAyxMBQ0HdymvSb/h/WFGqgSCZloDnryZiu15J+A7+9QqMmyYEwyP8aGsTnVVD68g4LX+cAIfSoaLGHQNY0aGCoU6JO4l8lVAkepljLsPQWcHGwRjxjzYSSV3BoETkgrRDH3jdDhEWJPlfxIg0Iv41oQ6I6UG0orgN8I5Cnwqn7HT92e2W+taKzHtRMqDD8mILcSDMbh3bWsjX20eSq6k6KwqsRe1HTKv8Ex60eYHrIE6KiDnHEZnozFG+BSczP6U3dncAr2eZQDUqyUKN70KtV4XQ9wFy99m4p6E4m+tuPJ5f+xfnV2fXZ+duT1+0u9NHTw1RorLbfSD7B8x+n//XT+eXLXYZmmfs5Aqbv9KDxPRXsHOri7lDU89CSI2yWZqVuhIaW2122ejNZ0oZ9i0szjg4rzr07VlbI+BzDzRXYGtovtwdFlwBdyoOd5nmmg0etcLyTe5QOKjavkkSrWc+a8Ce0jz5sI5NOf0XYorvd6H1dBbfYyaJ0iHD65MYVj9tt3u0mS5NtEw07YlGchjzy9PBGPxyZh2OlsvdJ4hMCMIvvmKfKrz8UsF7jv6rVuiAHRo0+fxsKQhVNYxIV+zZDiAdwScFiFYwpbw0JJt2zQX9iwM+tuzVIPVD0AQgoU6HD+9OLNSz3jd8ak1SqYeWQK3Z3rSUPYuBri4uz16D6f786f2uKElzMAEYv6qjtfUOm0ayJUF6Lj5k+9LKZEwWCnyT2Z0MSo0xhHt+B2dcHYHhw7B3i/yPoD7I6oJF4FieA7YCQBB1KAcQygCuAspZbSuoQdgUVZArP85B25uBIrpSyt5Us0Ku33pIDB6IxqXuczjO0Ht8SBt2KZxPhHA/FE/xz0Xz0tWp+KoRzNBTf6ObjQ6HoDqlBPNU01HLEJLQqzCPIswres55DXFBVRfSDom88DPt2DO8pECuNb9cGSFPFNvM0HRcmeA/rPgdfVa3SnA/mGhz0bWQVIZYjQaZ0mmpGYg4EygGdq0ZZ5FPuJRzsbBmHiFNIybOqPECGgZS4zGNImbLmEOK0YquvyIb8QLRKyKrV2+QxAQ/dgteqpTbac8t2NCcwSILVLArE3XiHlXPn1rRqsB3aehCixWJfZ1gLEnm8ogIDrZ0LaZTmxFSek2lIakXhBruh5qKtkupTHvAwoDSZIX0lOGZR+Aq90Vv11Hi0Kk9A7LVKAmj7kMXpUFyBUXkpC4pr6PsuT6yWz/LAlIGvhuKfVaYwHtr4GWgptRv1N2bYfIXYauxKvMs4SJzmNWBuqiqjk0EC00sPB24zJSWTLLuNGzB6xbb/ghsbyjBLEsl6WBO+qcpglsg3iMxkDpjkS+jam/guTm2pruPwNrE4xZl58922lMXZuT0IZb66sqKJXnCbKq8MBasYDWU3cyNzIThZQL0xHahuqRo1grValA9jh1wrXTGuXZtTwihjp3CVpKiqRAttKSjQPBmSczekpItIkHTpVHQVrDlqr3s1HvXZOzuPbMetHHaAgO4EcAmuxzXMGpuj8QhZMyMuCoJH3l1XnTv6u0dpv4DC/m9VlVkpdfq0itXJliEjQdrrCy9YlWiMrlJd8aafndcjmO+g3VEzW3fqDsFctto7OjYU7/eG0/rzGc1kj3T0dQexvAMNGY2ZRWNALTyZyrvSictO0NexJS49fm/F6Rmt2NJ3S4cQ+468v7Zn8Sdsu7Ep/bRrV22M9RFeiaI/4pYz6FiEZQlDETBAJd0fwLSewo0DSjyjZ3knwwFssqdlSUCFgriSyqogm+/XOOZrjg6AHjXW2cRJImZSRHmGXIJDtjpFMPknhxZ1YOT1manJ3j16cDDEULyUACqqpvGTesuRiavjVDMzRzfKDR3QVtT1awYHZTZzCnbLk0FVzv826EAFT1mZg18uqU1ccLUTgY26aXG7vKdqo+GodPFM+y2bOZ7zfDKg2YR1zWmHK/OxXZOZSyTNXJiR26hTl1ZPzCloW5x+nwbhyj6lWWq25FCRKmRIu7FVPFmhI7UigGhIloQVselQ4XARe69imURXZZbTuROQJaEWwA2l485mGYdLzoYIMyVIKQke0KmN6zGrQz6joJebGm8ZgHBolxSypmByV56d/5RTxpkrowqToMBKXrReOa1vlvRoK8Ikg3YXMpl3rHZNnGCK/5ByLTbcl0AMgReRIcWls4kH4kRQ0ZY1VMd2hKGqoCjNhfgZPP0tCY9Qo+KSM2xMhdlXKjovs4gVo1pTucjXhI7+PTTjD8WjAP8/ujXhqZ1b1fDi32djJ1YnBnB2ciuSBK31eimLxnboeKiiohCURB2PiER+lAmbszluIiuW8zjFt3mcFyVt9QnebyWU+UzcUiJycXox+hsfEvHBElXJlIpsZD4KARTUrlK9QuvPik6pWHfMAVEEY3dWwYcspwJgSr94G4akn0ZW0ALyPNobjMmpkxJG2lHQHCUXmsgyTi7OPOG8bN5hj5XLGT2MvIeR+z7ttyJN/wUNOBYPi503r+I73S4eIrO5d57G5l+efvfuey4Ta3fQxSK7vs2h1bl7fCG173OGyA/KgGIztmxy7Nqe7V7uStZ1RUPlt2Qj5nDwQ1WQ1mfsSLd7XBh1GQqHizxItcEF85D4EWGZ7q5ja8bRDg3s6OsO4ZRab+73elNkcj3lHShAXiC0AMRsnWz2ARFVD9yHNzRv6JS9JGxYsC+jLE8d1CcZQCTPd5TEt7JJ0zzB597GsfhIIuPS99m3DJmM61wTVX4kBOhTMWjyKsCEraUTvafI+RF99FPdB2pc87NY2YMrpKsH7xS37nUUDfVQu6JoMr1x21NbIP2X1uR0YmM1wHyoxTMnHjvhCoT2XMGxnio2BDaR2EGODmlmH0yIGre4GBolJB18JpbgqPhF+J/51qJ1beY0ZapxYns1h7F5mOLdjeGnFk6cduqZNrm9sqK7Mj4sbK+tvbUGZLWdsdO/BMHonPZ+rTXUnOvR555VTo0caA08tD25SCYSm2/N78tPDGN8fnK1aYZBuJSRv77XOk/qQZR9QifYHgixVuSlMwqoHGNNdKVwhOCbYqvWCVK2pp4XlzQDddMG8TjLkX0H+da26JckIgLWfHmhLsjkCIRlwXdwDLN68Z/0Ah1DZAlgI7KQr64YQSlzGugXg4790Vttc1/YiFhDwBqENCu4ON+f1mPW5lwbBLXuNQetanpXk+DXrV8L7/ObylpQmO2B9+V7JsxK9f1DMv4Szu6Pi9uI0nYcRGFxV3sd0pml1gMlXuMk7hHqlz5zfSBOGf5xXkXGckqH2MX/n3tNRo0U+qon69RPLVWa1YCRszvZrI3B6mwr1MU3pUNsuQrefuFZPxB01ZBcx5di+GU/tVj5RqTy5R0JW3I1AC/oypcu9+R6oblMGClbMmc7tQe6JM/5iYHO5irM8E4F+rIQAQpzm5NTdIIf5BRoZL4zyg5ZldiTpPHJ3FulKrkc8UVRusu2M6v8XUqpSPoGibESRSMVVx/yKDWxe11t0zK420PfSM1MUZdK53yIwFkOX0cl1KGrHmrFJcmZu+R7pvldFSfRvzVemFVJxOyRgXHl3bBTJR3pz7FXpUydtd2f3AztaBis4XJohgvwAwRm5JvLRZUEZFPIDwq+CLAmJlTbSsusFnuapaMuh8bcEIgGzsAArvUOUl/bqUguvaKaOfnAef/+keu8d94/v3g6/fnZzeNnv713nOd/ef/cdQdDU+9djcXK4wGdJ1ST2VMJTLBmQ3PoukjIjlRNo2kUjzHD52OwXbsdPdkXvNQbndQDRMhcRlapjlJM3pTRMzqGlXSWjlSYbipTH/ZKlvDkfB6HdPYBVLPiW5p0ldioP8ZYBARtsB3qtmDNXjlvJbfmWJQvUuaUlamxOcAWyO2KOR0lsBEp1h6rjyZbBVvSnCDdsqI2V+CqooKCkGmquhmy+JdknnXt3UTok1oT0yIu1GlQQPqyHOVV0uAmdSzGl6tVHcRryqM0oboHCUvGfAGaBscSQn4pHOktPPHLAUZCRlv+wncGAhFtEU7j5ryfaRW+IELyCxuYUxjQDQrDYxPfxgdP6eb0s19cJRFDJAo299bE9Y1nunHHB47mmjlrAbudSBYhcI+qHwDOFeNftLv8xTM6VMMKuvLgG5NC9j/9+eDm8aD1dg5TZjwyyOVAdXww5nmGVZ7TkdkLXVmFtcJQBVfw69vfmIJUFzqwX9mGKymGCV8r//bbZhXa9glN75q+mr3/5uQ//e8vz99dXPkXp5f+xcn19enlW8zv22/vBWiqqLE/7835IjLd1qG6wglFF26JtWl1oLOe4kT863eij9NI3rFF0OJloQ64VQLA13pIKXxlLm1O5CMjFqzi9JKuUWGiVcgFIXPuW+WJ0KTt/lohTfcrGeR8wdpmoGn2DW/Ni3nse6uX9MkhtNJ3x8DuIrDShdFhexaso2kmkixdYPXA3eFtU6vrrJB2zVeqPdGb2MlMWDl5ii3PS7o6Nj6azg7HwrFjEDXxbQZebNsO3OEeJ97+NLe6OsQDhKWdgfPB6Pn76DG8O94O7aNsoHE0OXeu2+UzT7JgP6fp+8i7IWZM0mXHjfsYkjPaw897/Hxg31JrcoDfG2ui2+ZK0tqe1NW1TtrDsSniKwdMq5wZEq2PcUQ7rC8rkFcl3y31X5yoK/10MFblQX2jnXdYHdfSmV79JzPkA1dU89PhOqCbDOR2AM8yX/3VDz/Cblx1tctreXcVm6TyUApgmrhCM0noD4HKTcZqakJMYe6ENZiiq4FTEslNK2sjN+IrF4524Ir6kAvQgsDFoOZEwR//xs40GP16Mvpv/8Y8PBl9e/PIfe64eP3A8R49dx+4z62e6PsbXj29v2eL7aNWVzXwGKhmTDPyfpv+TL+BddzHGAX/PQPWcS23qg5ib2VaaE2gRVo6kM3nXFyFz6ZrPhO6ZzNohlR/uEQQI04b76uF5JHfpAGcDlP6aIaPJzziVI0zZl7qDrXj3rQ6LPicnV4rj+20r78BEy6mRzfmsiFXKHbMnmv8WMHh8VD0de0+A8pVOEPPuv9pd8H9npJ2POMKEd0iAZsxHy5ACsor2gUsPT2CjQu+0gfAyDXv0wIYl81G4YOdcRshWSsHLp3WvMY3O52UKGtp0U3K3UuaBGDitJLdSaoRdyW3pZM5/dZ2Ly1C7UVgQHQoQR55gk35avzXG3t7mkPCxfRw/FV7AWocixFZ6kA79IHmqo231XFHUa3Vt1SWqlhKQk8nvCesnHzAvGft9roB6m1dbV0GbvlWy5SGGpIONSxWrpYL+Hs9bSo33E/lq1xtZDemQTXnyykwFPAw58tV0vFhQUpJM+yUFOxtje+pebvKKhuxcippl78b1PQ2oBO0jAvbDQawcOWAqC7vz+bU3x6CS6QxYOMy6givhnptoH2NkuN0XZWGru7XwCvV7x54RX+Q2YVXceHX4Oo6NxVsngx6cY1/xZddWLuMJ7N94x4HBj2iTrumYo/GAHWXQnXl4zmj2mPd1EYwSgg7DFZBcUvgQ78fCvicBte3whhxvWF4tPemNvlKCGD/hWyzmfA/FFceFu4AvosG30uuDnIGpGoPI6JkXdxLqrQUfA93Xu+/dr47nYunD4tnekqO2kNMbHeRemb1rXI875VELc2xUT3TQ3Gv37u73bXCtTtYe6LuiHQ68knkXtlbCwXKkBwl9s+7O7BySERqXRGys5MpaTLBmh0bmbO5jtvUBgQZapu80XM+rqc6VBfkdy7DN1mOBweqddwxDvJfv7v3kU8Vzc20mZwySZqbYzxrG+7SR5cymlpG94o3MojGqdmI7mcHqvUfpFsmiej2U7BnYrHwuKkpw6grEbSD7csQzIAPwnZqgP0XddUNcUS9p3N/QdPpi4efTWTwcVTcoYvJthZgx7Re77lyru/3O5RU7LlvDuzt6z9QMCtXpAqR0DHPHozR/E2Mce3GHuK0mcu+Jezs077J1MrZ4e60CfZ7BL05P9KByOnu9tgftVVUXlJ79NUTwsAXVAtaIpXZ5Eh89V9VeYPd0cydKT2pRj3I/C3lYUly9eGP709d6vzs3ux6V80acmxwDH0os17z7a1WrbdrDZtlBsDPkGViVE93bTCPHqOtjU5NpqzbbSKvggw78ZYvteyuXl0HHLCx/E93797fxnGsDf6vTzGhXp0BZBAkJdkngUU5skTbPNFtRer45KUYYAgMSUQggGAAXmJ7P/vWtbu6pwekfNl3f4s4IjDT966urq6ueiqDXQHWy7MMfUfInBwPhCCeXI5B+JncOFsiEtPzWlk1K0DcXZRDEcvpZO9XU7QwciaBNn+sinGcq1aT7elRNBTHRNZuZNfMXlxfirEeHbd1g/BlJprd1JiM5eSmrrWzTdjGI62aMlKZWnPi1DcsI8t73ym0OVENXlONLjGUdTJLpGY915Fvv/HUuyiuncqP25pWQAYy4jWd7NAXGo+POBqune2OLzL2/kJD0V3fpaPr3jX5c0ny8OiDnSHS3HVLg+pu9c2KQr9oXiiz2PfO5M9/zrto/t3KW/94UP0vkpFskfodytFcjWWZXdGljXY6/Ditayte9K4T/TpD0J7UR4Kn1Qk2WjUvwqptKIrFASanPu83D0m+RPvEf63KxU100qI7MDxG0VnhBreiiRpo+NMR31fVzlf+GGIFJbyfb/VDf0iRriVF4/ZvbuQ23sxEFSGKNJgiLLO7IT3zhded1WCQx3Lvj20vp6uLclEsyxaNRWLToKE5MuL62Jv42HSosMYTH1PU0WmLMnbns3lr2iaz5Skf5095pqdArjSx0vPjlExGpcoIUXlcBD79Isu/yeFf54TAFZo9jPfuv5U3iZ07PbL5a3HkwikHyiMwGxCsFthvlJS6JDBsHxu64q2U6aqcXo4X7pZZCem9U1kqXesuL5pKOsXXxYetJ9tP4P9ftkPSgh3rBEZa6jrK3+/9Xx/2Dg77r/cOf3j7Mj/ursjoxA8E3UeZDMC5fugjgkt+TGqTrTzYcLl8mMof9p6/zMNhY1ZJCzh/9/7t//w971B6kHS+3ztEk/znb/6e+2Va34nWlMBZQ6UhpUYqkXz1w7VLYW9H8KhB3Q6fK6uvU3nEcXTdRucKLLKuSRNSjYpg6Yo0WlImka65ceEBqvfBbk71luKwRGwumbO5rzQNcizRkri1yaRjofFm0bc+eLyPsW4NVet8XQYCQH30fu0ouoLug0TqrxKZMZLOqpu94Ltx2FpRGoWpvCwdAeI4wuJCg445cD5zT4z3lbSnoQGJtdOazujaSt5IQe0GgsUkhoZQ/JH8CR//z6BUaR5CAbVw4dxavyWKNgOBUf8a2vPb6euOtLWermw3VTo0OeV1mJce9s/Lgnfejc4Gb0YVWb20JE+kX6kz3i872cZrHkd3fw0tgd31OX7dtdW019MhqzwS9KcU+mOZneHT1fxec4OeQIPezJacp5dtoIYZryhoXCPDkbrdCFlUcQo0SMSDjhhMqIdwgZeyLEzIFce8HCJOC6EUEc5HYVTAwa0dm1WQvVOVvRMzKLz+LxGsS21Pikk105U2RuON05nXKYn5jkhatBjYDGNK9vAJY6BVRRYgZMYku/iibuRQM4yfz2Ntuw5B4i7HKeAT78Tcq+l19Wk8R38CMcB/+JBHzIgFYklhAAWNQRYOmMBZkcVOdD0OmfC0MJ/HpXkDFrlBFVuT0Nhk0I7Kk0N5cIKUEo2xDF7HFnHBsOfXy5P0u+ptFJU5W4xh7ASajchPAQidEZ1az32oytPVhGXW6XIxI6wJZxHiKnQF7boy40rp1k3g3niMW2h2zmQOLAHloMEAp2swiEqnrLtSQnSjBKU/J88Rb3rllo72hsALezgWvYF4ElLK2rhphl2XFaozJ9KgMk0CK4R4FAzZDRswOyq6c8VKrriv6dd61R5XTQEOVECuyGKR3bBwgFN12qLQgxCYx4ztlghijHYsajsqorAaODrg/DMQQji0tiwx26yzJORcm8i6YmJhKLVdccp9SXqvLnqokhl6S5YqM5G/Rm4CjrMgncWufJFdZEDdaOpYI29izM4gfRxegQwXZcFuBsJKvXsBNwpHG0YEvqzmWbU6qdC4brp09ntde2YwNvjdPrpV9bV9LXOUIdvWVLe+m9G1IkKPSuUCRceLC93dCJqqh4bmvQGWPSC2T3ASIEfE2/Rag9lgvtQ7gA6SOZacqwrftRv2hTkUlGr5yxlVN5tuyigSrOv44qIcjWF8YdG0Vp7LEDDeGWrrurWGYNXm+nYy6UsfUtX+ne6DsWbdEovTU2RepD/QJRp2dzUd/0ss+a0qFts1J71SiU7JJeswcBdwHOOLgIHULyDxMtPLl7LEe+wxGqQVXqfeIbBd5vgIRpxN6OKCKT2OakvNGkKGIpp9fMG9a/eaTQqS2REUrTVvJ1rfVA5fT3F1JD3W4afktt4ICuGSiCbU7C/BfhNOETMibaelj2hCkrcW0HDFj+BsMPTE1GNQwESjOEOXkrecREPtqEvdzfemtRJdWdGFJOtVvJE9O2aiOxNaDDPDY0TIUciYu7V61/KlaHxwn3NthCUUzEXiMir0wQnHpVvvmjTFTa4jDvS/AbmbNy3YDJrIxKh6yLZNknXJINI8YOMzV54zkOsIUFKkBiN4KyrASU6aI+Qf4q3VQKL8sub3hV/6/Tx0us/HF/QiF1s/vxImswoxlrGMjLAl9UmtCCpY3vr7k6tzhCFUSudW2ELbxE3CVgbvowOfunpVtb4FucIDLg+Fz3u0fdwdlrBgkaWgPBNerN0n/XehLtwiu1RM5xeryXKMKjwnDKXI1vglc+ssvGNigd8nNBOxWbRpvbMhIRTcUrvprdx5eqNR06TrqD232cFeFHNT0HU4dh0zsAkTCGkOeVsTbcHgU39vHqt/SrwiQ384XI1K3Qwn27wMCycu6/jQ7lCFy7F1MYNE6GE9uWkLlkQ4jnD0qcm8n7esww1gtn5ZKzq2gOvVFrqMi4EUVN+/NJ9q4yBHI0hsWc7FZIaiEM0Jk7NXs9knkDELhSE+ZeHG+YCg/yQLhB0hWVIryV1JyM5I7OFyOuIsS49QnOHHgeTFyii2tmoZ+b3jjsLd2tkaP+JrLScD54OKP9hzOhpL6b1VHaCGRVQHVhY4Ma6WDcMdF57TZfMC/ntGVkjmlNzxR3BgWSd/CBLvc6NkeEvKod/iKPiHeQf23aeuwtqDQ4d4ZYrbDynAQPjA06eGNEBsB1Q1w9soWkOsvnJ+Qnxh7PVAiD3NUhuCHVSz1WIo7k4Ngsy+MNEqMBxnT6ogXITfU3oM/TpETSGkdw4TmWKRtjvie0gHCO/j2GW3udnpaSwlBJ8JnNTcQSa7GI+gpCtsnRRqCrxVZaaN3D0kjw7E/kYQJ/oZqrOeZz2ax97AH6wHbIg6n3uFYsMwNh/NU0m6ffRMYBGzjyy+nJa874eYd5QFNqOzs3LRPwcuBiIPl5C30wWj1gChFFq5dhXvtIC3jVGYhO8nUMFtWXXQ7pr1yOc4Jh0W/0gnde3CpPojNqu4mK2mAkV8Lz1J74W4XxfTAkbHzZRbMYgXHbkO+QWxm0X5W7EdofMw8ta7uN68WtM1hNRDTq6pYuUkuzzuqldkG0t7jVps56cI2+kdCyMDu7749bL3k9Hev8A9V1Z/k2auqTeSwtenoBb1aUsY5kg5LcRhZX1BK6ZPTXIogV18snsyt87tisQZ4xnNjGmFAVf8nl2SQrcHyXoDd9XAWjqlP+huAGCjSwcXkdKrVN+n1dVn4QrOBSzA9GWKMEdxCrMXPJjP+6Rvyv2itGWptoNMhYPMt6jmKHtNKtR9HnlKi60/jo7bzvbQ25SZnhgNE/IbfHGrH9RyiVtV4aVCusLArKgrW5QlfZdJYT/KyY13ncQbrYA+wpGsMf2963Lo0UhEbiyxCYGvrbq0k5B+vYx1jfgpLosx7V2MjzWdOWd7tF48JwObEuG0luEpPpibW9pHaYPm4eVOsYDlWNF2jIIk1DqcXZRRLUottRpeiEsZiJJIMbHyGfMMvOtZ186WXawpIlASTKxYJjK2HMW1CRSIFl/habnBDC/IK4ZLnNEoYhEq/04U956SWoqjk6HS3NpuCilO+bASPecG3tZ+bmkCqlwWnPejIDRCsxerKZazxSI88ocPGZk81qtzRumWPXv4M96CsEqr5FnpiGqM66DlTwVGXedGHR/1js25KZqNpiOnv90gw6yCOAKZl6Z4wkEZHpCEfJXfDGy4q66T1LRJrq4kqDydkJRxGQJKzZM/ZJuHrnirKUXRgrCkZSzU2YtuVx8+lIBGgbf1Gd8SwfY59+psztetEGa2lW/lZOQxPw6olZwFOHfKfMubZbfymsSNESMEloLazDcmG1sb1voar0z7I9gpz531KlfXDgeaSpjPMAyGKhTvotVVJkzVVOfj02XL15iwAccxwt34vdikkPVJLRk2iHwf+2q70kKjkRVGFCGjBEa7U3Tx+EhvPzDImqzZvEdxWTVl2kxoUXW5FeSyjV+Syby1v7NB9I1eY11fMSlT0pYpoKExYuledU9moxvhsvWRxJd8l97SqRIruU40wqnJ6kp2h1LcBaEIhDJ506Hiiaw1LSO0zkY3CUqRBoeqStQLTe5GWJuWslwGWY7W3jvHOxSQuugMtzYh6yhQQGNLvVtSuzUCOX7KeX3nPccgcjbtgicw3r/UyjrKlT/S0aa+4lInDGAcD6qtp71F2es+JO0KcBIx+tGVbLlSzF2ECQFxSCymrfi+JagL7U1vqSDmlEhbd2SUaNY099dgeopDE03+jnSck8Wx03uFjQ0cl63eRzmgUxgT9mkXr/XIplm3JeKiXFfKv3njxQS9cu05UWROykMaP9zbFHl/SRiWdNTfSG47pqO8pzQMUmCgKg/XdP3D1GMdUeGOYD+7xy/ZwIIVGDd0Bc4X/FIiSZ6++wz5ZUfo9+x5imRhR2uvGYp37JNM2AkY8xCoByn482cetWaENTMaibVWeY2dHKMQPxovUClHome+JUsfi9UfWzlbeBBAFcVb+ANGyC4blazhjy/dr5sjXVLSVmQ5/HVdYlx/ikkY6KjFbotXJus+IoGFtNxiauX9xN3T7gRNq+bEgNJSHPMg+tdan2O77spgUE59TcuhmAaLuKUKFD42DcjNfYKXuUgWbV7UNfMb/JDFHlMkHPYKPMf2evWNlicdmWGXW+zpopMNz8eTUZ8mKpSFWVEq/vZsGChDh+ZaVNAmbRGDbiojlNgL4K8Rf6He0aKmre2G7VATDg6UliRhQbdZqnGPmkJF6Dj4ESs05cjU+aBy1OTczFaMbK2qJ1k8lDo+GWvOjiqkGISoQqMYsnGJ+vMjXcKOyTBzPqvYIBMajME4aZC9dwtyGF23PPKYICitRjvURkZLbXekmvPx2Tl61Y2r4WyF+LWjqE2HYQ2eX7H5VFZBHeduaK6K6VKB36sqccvEoO9uxIKpuhwX2UDIb0BrVkzbYq26JtoadPjSwLI/64FTZI+3/9NzQZ77oKgE0ws0EQ1M3kaJrEkmtTNQwOs55ic1D7JuhPuIufwlZuHvXtIBJSwrRoGmiRNrtrrm41fxdGJwJQiNipTBIbUjhoYJzGITGAuCb4tJ05IBrXzRHYTcI1Qm831TxdbIZLsVLNZDX/EnxO+HeschEkM+u5qWixyNjospX4pKDOIeAYxzRbi3DAzwLwPUBAWJTU1NqWNmU++zmidU9fLiBxoxqGAvS+1jt2xHqqaWDYmYVxLARMylhE3GVq3kvsNGfchAsFUnJUbLsE0xrFaxQXn265P0XOtTtEEJZxaJTaq4YfQUuWhk9GdV0LLtgJII7wwDgvBv0izWzLrgzLSaw2JWuy363QqttYy5E+pkJXPbQSjczVaMOQTadCiDkPElDnFi7itnC9/FTCzJ2hvRHYRecmjcRW5TdCorQ+tFhdqktJ5OVtM7UMoHTeSuV7J3eFNst3SypRANaGR6DUyFzAfD3Vcm1WczxqgCxI/eK7xGIXfHW727TCEZmgJkN3BOIIMBaioGdl2ToTkeveFp0Ipwv9AOG4Myr+fkOKouTajvpJcdLZijkcrwayJxAvUmi2SO411BA2vS9lGvt7kTKYLH2gzkU2ReSkBE+sSC6eoztuQUOg4jJ0E6Z3KqBC12p6SkQG9ELiilCaEONxGlfhAd3nbraFz3REstVgraYhYrB3EJFqq0oLd2AUiilK217Gspy5v3DDbsuVsLpm5YWuv/E2s/zQxiOCmLRY2kGOucRChYQIylKidZXhMwR+iKBL0moHvGb9UlRSlDElCb5sSO5NxYBAFeNx1zNWxkhcQW1uH73rbJe0TfItdS89qULUnDsLtrtzU5iEVzl8aSuLUwX6AapkdMMrgGMTehZiNNBgtCkniBLzhIQGjfQmRSv5HOYnOqyFBZ0tWW951Xgqfo1VToueESB6/qqqyHVw29AaQeeCDICu+lfLjliKfVC/4c92uBLyUDh5R/nkeUjCQ/8tOuR9BlcEkS/CoQGaYj1WST/Z9zX+HO+T5l5TUG8oPlElKTHirhJA3snnbs+Fo+a6knOLqDFAR7zb61TT4eAuzNg6PDEpk0LyaW/cgt3MNPiYlzd1u6Ebp9ku61GL+NBzRwmxguxvOl+BRE+nVCQsgPXrzff3fYf/P89R5qmfN212tBWNXqClNFYsBFFgryVO9BUqHiQQVIg6t/c9RC+Na2O662yASAhV4zaknZ1nJVvk0fsRKRBfi06B/KFC4uSM0NReR22e5E/q6nWJDrg9cvSXud2aFwWXJy5Dc1VApmfTVO5te7H4yI/eEJPukbybXvMlZA9E61/8mMjc6YJKom3+AtR7MDJgOqm7ta2EnHHDdXrXDF+ZTtFGh1rlFw/dUp/oCazsvJZLbF4J8JqCe6TMYkrege2X7UdvQHTJg9qPBug2Kv19QmgwHXBAIlGr4xH1IVDt0wh0daMfaKQMa5YXzPnFbDwaT2gBXweJCSxh6h6QlJJGyQh36rKGtMY0tFdnavvPOl6ojQROoCfd8J9v0MbfrYkFo4ZDy/47OpxFBjTY/ziki1nimvF3i0tsh/tZMN3r094L8f8E+32203awc8gkXYVTXe7GVUajvVCOeskj2fyv1BAWLp+WyxHK5YoXU5G5OXn7l7j7rN6LMw60xt0FpvvrpL9/tACDBLBey1JlG7Je9SDWOfKecoyyCZ3kvN962Oned1rRi46Xl4ivbngCI+43clyF+xiCc2pUI1VvaBvm6dCZ5pHfKChPesOwLR8mC4Z7L86mavRU6Iide4LXJcCe+mHQyZO+Nh1ej/PolW1fPpjetI0qfW+MYWVZMHLH7qvq/eHTflhPzOuItZX+BIhve6BwKTo3XbsU5izFsDfbA3lHSh+6gas0N5X2OXBJ9F9hbesMU5atUkVHNm8M5dPtwzuhr6xqKDb4M/G8nzjDfg28SwI/CGfAV5021qixZCwDm2kBpqmf0IjA/+qSH22A/TvxjABpDBDJuzBsKg9qFtlOSkOyRWkANdLHfI4oAP9IvZe5PZ0+rEoPsptzzzIkEpSr009WRykTBkOnOnby+thPJJ4xXaHjNXWU7s3560OjO2A7x6VPpKKbrns2pNi3CL+swmqTZqwPvbQLc9dyT5Hdq8WtfkD7+hxR/+mAZzIMLmNr/ce7V3uPerm83Z/5ihNufc1GA/P3zxw68fbsz9hzSbTO7VmWQ2Kne/3N6OXfR1caJ0eYYSFavfV0vE91ZrfT6+k/hGZVJpNYNINc6TXClbnsAJ4AjDcFD0bLzWl4cp/qOv4sEIbJOYwhiSO6hG2XYqojYG/16KVX9r7/37twgt+f1e/3Dv9btXzw/3Ohmc0EIoQym2UesRA75JHLpFcdWncCDHDWhwdvtHV95w9JL4cbtUmQYoz6ET4+kOnOMlSrhGHM9BWAdRJo+2+f54Oi11lGKLSvTzuDkpOTz2ZbEYc0gOEIYoMG4l10IUNRGmgKB1QRj4Jgu1NUm7TD79WqS3tMYkzujGgMU8bjgNQ11BGqQ/MWAod0nP5StOIDv7WFjgiIjErxIvVB4+rKusxGXfmpY2ogP3y1Yys/H3b9B2xurTuOBwslN1tP5W3pzM4Ni6P4XJWKzmIEAc3ABHuNi7HsP31+XFbHFjg9EF9aDyLFWsC/+XxF1wkOTeI69eEn4ojDXq8FAcYyTnPtSQ6LGbRrzjZo4Dc9gloOGWL6ZxqDz415eIIr1Bw4HHhINygU4O9G6Dwbs7mS3QlVije5giBW9ONlUoNGnixE1jBR6qSdILRG1lOUn79mWYUIZHnkO/nozrdMwDsI4KJSsk9BrzlAVuePiA5J2gTQnShDRyq5o2KE5dCwROTwE0cuEkRap7XpafUrdHhwQngedDoJmlWi5JQCUyZ/DxIckECgF8gYHjhTAeI627DWzRZNtCGzBbYYvpo1oQ+YPkAdte9hg0hqKwdfDGd0jBM1BDHo5Xx9M7RXMpKdy5P2+gfTXfUp+KBpotBOxzKb6yA2Cd+/Yu5ssblSkQZgrtWM9Lo3wQTgBJapOdv2Bwg81X5fQM9k8NKblYQ4T85ijOiktrO0V0Fm0r+6+ZXMqSPcPJDd8bSx91DLrZ6/E1HPM5HaoL3rw99EE+bcdiam3RHUaHsrbb/jKWRjVIe7R9DMmxBZWbw3Y7xVk48dF2b/uY7aPhAXlrnuTFyTCnF9nmM/iZ23khwSHu2rq2ayMa2qCiiGNGwNIXQMltU+m3OKAHSkkwcP/0kcXWDxwNRF0V8TsTCDqi4Ogl6QReWFJxSwcphH7oZocR0oarRTW+RJ++clis+OLwhqxgUHB1UTft4By+ffm2l/3AvuJL0tGpoe+EEBWUdWYU1OtTKSEPZTF21w2fa2x99tayR57duvhOt0iYmR1O+sRh7qCnkA8VmBTY243jzxZsxIKDJJ+3J9zW4WRl5EMSAI5+p8xSrdSC0dcrXGpMvgCmHRsIIemSiIJcV/0scqbc4LqucZuN0h0lijuujyXd+YfNk+tlUsEaAyd+2acgSxigvrEhuIHhcPwoJ0Cq064TJuh9IdOKoFdx51TDPqBh+DuCzZGMvsox7pHTkiHI/LjWBJkxEycFsKt1lOFQdgkirzWuvWY4JOwvJUyoFZvzizB0sJzNqVN1+bZORHley98sTGndgSD1mwX1ULTm4mpEeSeRXNsXCcv5hykvYhMePFdR2UrtAXm4ywgSk/zEVw4uGW0maJyZ1cr9FP5ILD0L+ITNXMsM6vNEeaw5bbLI1GY0La9orSTc0o4oG2znER2lC09vs7y5YukWAOrWLTduGSJISVGdW9q5zqhYIrpYbx9tA01eT+5NyfQsGtP0wEe0BBW0280sVU1imvpJ+GclcQZ9SiI7287UzBI0jRf1jZttk19iHX9UXJCQIW6OcXmewskw1OQ1HA7NQIg3NG/1etoLR+9+tjgdPvpq5ys0gyGB40n3cbySHU30zRZNaE47OMA72zud7BECXD/eftKuWQU2xjhoik+wdpr80CeO7DwCR6FVYORlW+vMZIw6WPfYO7Leeq78/xAfhXpxFT0933n2YjGm+3dRsfL2NF/M0MuCjKZ4t8d19XQL0ueRISd/HmTny4tJXwLSBQY/XnXYQeueiKKaYzdhG7+gRj56xtE8oP5Hzz5On84XJfx5UMHXLf6ebhR9KP8hakroGv5XlfEga9nuERA7B1HrBP0OtppI/FmnHoKfYWo9bWPQHHdaQKNuHEOE89jCar/OhOvufjj8bvPPeXstJefA3rL9NxjA6Pmr7GDv/X/vvc9I+ZyrEzmc96qbqqtO360YNl+OI6i+xiYboIQ+YaE5DKm7cS6C+Ep4auXsu5GzWUvNU6vxgoJYZ6Mzt2kroq4kgN7IAJ0OTKEzAeqf5cjAdxKTCYbkXKEgXl6W3pwjMmLUYwbh9q6q88jg3zQ9aNy1AePCqWCTdPwmgHtLpWbT9qCu2bwV9LdiS2tXqvWlD3yRI0gUhmFOORg8V2s18TJwvzEiYTHBg4cLqNYVbzqyWoAxXX6zIYZNkRWbVujC93HEoT8CII90Wqj6IOo6RFHkNyDk/WEAed8WVSnmV3WEvOd6E0VESR0R4ieXDmeWOi7FzaEYjXBBTWaBhRPpCqdj8lVj3zq1dmKXHMJaGpOBzKxSH7sLQfEuRptoOW4MXZ6zsxxGKzZQrYFhXTFcrsjgixqkxzAUwqX9nqq9aW0LFqG7UtET6PWyqyZ3gq0+Zm8dBNu8gGEYGd3OVUG6UTKwYetp7q6U5mH8PYS80yjCGoJhq/p9DMGWSzOBb3osrtfF9fhidZFV438TL7ugbTw7WaFbPM2QIKXjiZ58EEmW53pe773+bv/VHsabgwp2th892d5uBOiT2lPq3x9JwxPQQoCub7mThElgGho157HDSl4CMOsTY65qC3yOuOvkhmfm3k+3JRlLWSEb0EYgWBuhlcjvIEB4TCk251FEJ/5yg5L/NYQ485Np70M61NI+tnTXo2aQUbCgO8Sh42ooAKw18/Dvis4VbF8ck4zDRgqszaFJrUHrYZFOye+CVlLgyd3Vi4Jb+8U3kc0989a9zUeMpKdkaB3+e/dWrhpv72Z0gdrcUU3S1FdvkecM+COj/d+/VzVQO7xkb2ogex8AlyE7DhavB2LcUV5Dg2F94VJhV1uokXypsxZUbOEO8HOywDjm2XAyZhNE5IvOInWjpDsUbMpGVo7OSgLFbidFMIZKseswIf/noZF+Q9d5A2rq/GAQHg2h4zweBfkJkmEdYXfzzUKzvBg0MzpuSnS7trPTu+MSE7IXeXoNDUqKVCc9ZCcy5R8oIWOr0jqD4bocj8qK5mITkeim1ZjiTKlvfGh/TbKO0qJUmxyUsLaWHaPIkUQwmaw0uQZM2jg0OsItohZ12GKYvNGcsE2pm+dP+4LzFzTic2drOJt9gn1ozWxJiqR3Fr/Ce9aKdIa0unUGv4MjYUWT180OxmdTio/AGeT6LpgrtqHhOEhqucXg3ZhngNshgiGU14gSTvbwvsBwoLSWXagWPRi4ma064SN59F+8ffu3fXHIaXc50kvdo9F1ptUadglCfMhpGVZvyODbVG9EMENfewJ8HCGxh1DHLcQjePNMPlwiiCczmjS0aZPx5Z4OOjUHggHXMmBfaHX6LYlTrsR6mmPwSHVYDtlRB8Uo3CTJ5qIGqvwctcXfkq/ZsrNZqZHAWxccajQoTWpB1Qslcj4O7Y53U1uzIHhFaQwIoQScWBjlQI/JnScGT3liAKEhhe/D/H2x5JLjJmeke90WTZ1MuYtjWjMw8Xa6RzvHWDeWjhXjk23S5CFUu9jpMgx7lFcYxSKEab/ziqa4sGvWM71v2mBEUKc0fd5EBndY3nSfEIwDryM260ezCwTgElTSbMPGm602sKsbsOMY78ENciQLFc2zpTgA41maaJb2fCrMQbhs4E5It75Ys2wXIwmdF5Jy6CQUUhaGf9pNC9aI6YZCtWcIFl9xTJqrPo1Y/1/VJMF0YK99//f+weH7/TffC9dxBSAr8XRGuJFYZEivUAqh+tfiEvtICZ9JMqi8W7cF0PuGSFkXOtVCJYzHOs0GIGlu8q3HaMAIRoTGViyWW1geRSsL3XMkdYYG3Jjj3YdDt1USsKGg+yLwaUZCpsd2LpKTa2kUD2gwbJVnA+p1IvYleJ8KIhT6TkQBMbxvikcZwsmR1ULg4YOa7/FF1UAmHhRyvERbAtnTsdsYSQkf1sIo1UOrYLIONfoDtTntpnFROZUSZohphVJ8JrXQMl1HLpxgvXjnZ8a7Rbv46jI7qBY1/GgQxDWgaZbxx7IG4QRGwfbWzBS3ds1UhQuSpoqDfTfNFZeYXqMNBVIXflWBCjlCST533eNwrFv3+D657u1I24WfXOSphR1tmvEiN+vTwdtbQDNP9gOjgAsWILb9912An7n4sAHrFx8FHfi8KZMgDU0zhq9TEybRewYDe6MCp0eJHjxG50mjWNnCcgbItkMpspZmczEfDkjetMEdz2cT1m4qbaj4GpSmAUqDyX/LajYJdlBdoMRA2NJuDRuF4aDGpuX2ThQNdJgXbWR5fV6A7FvzmN2fUtCKDKMRsD4DFcVPtrflVtBddyapbIg3FJGowNv8i7dvDvfeHPYP//5Ovf3RsgLO0woC/XVOkYoMgXFpeF2cxwMtQQRqgx/fx7uAPX08e+CYihiXjjB30mhhVJNsGyCfKTG2pk/coHUSXf7Jza8Hbut4iKYmq/YgHDQaudhJqgMcUFO9ypiMp7Dnzg+lGKE8eYr6aVPlRXFNxyf0zbxGBFE5RxCp9idkoOjr4tthyVNjz0vCfChGcM6ZtiSRrzM59JgrFZVSwjUWi1D+1dZussEkvtezPsdQN/GH/TAMz1fTT+Wo1TQGfBseD/eevQ+HFYyHOSkJb+CmFer1ab3aycCLR+SKJ8h28aI0/7j4OM3hMEc/vnbf8nhUkYeFQ+qimtOg7qTsyDjJ0eaj3nH2J0iYsNobNhRgavgCTn61d4pHJvYDOEqpNDgPEhc9e6aD25QH33WyPvyHrleUiyP34HIGSr24gweBp1h05FrO4LTcwnIFRwTv5He+Sq4/v/yallzcXopXL9XtZtspSsULHmjLSZWYHc37DLI2jS/mT3sLS8l3XVH4wbHsuCbBn6Oe5Drmx0e6dpNQWH5FNk95w8rET3J1RlVQbx61m4jV1/t5EgGuwzUSgeeEZtnXqIty25CaodHGeDpfwbG3i8k872DS+lt5kyCs5kKgBrRIr/bfpv1RmnO61LStidUZb3aW2floRPKblC0mXQBJ77Hr+7xEx1UfHRT7KJ3ZtnaybQkMHMiRDEIy9W1qubGUHcUILPFmjSyU7WDqFOOahDyqkaj4UGhajKdbn/VZrQl1wuMRWF7MobcYcGm2KBY3KNq2LtCFNb/64gRZdxLI3/QACkDJhyT32HwGP4hJB2nqiy8cbwqhcicqqk1jtyrLT63tmnxACf2CiAWjhLhMa5liGODV1kTl100WCvAIY6+tRTGmdy7vazZnZn/deUyoVj6cF1knLAjaEdG3IhXnEGr0Gk4rmQRyI6a6baprkhUCpueKcAMFj5doJCDNyNu1Cp7iLmAbZMfgi2zHZcBDn6aheSHOhzmDQpGmMWk71XSy9y9g6E+LKNDSr+6HqmahyqbbtxSvVNVocJdEtFFQMEaguU3yyzqN3BO62csSYatQejLX9fhJHGXkDAX/lWM2I8iWuhipaLolSmq5xrOucCkfDK6bPR+qHWN4OGO4m5INykOZA4Pa41xVghQ3nxRDiR87GPjVh4g7YpigjsrhmepgdVLhQDm7GiiEnI5GuE4GskwHuBC4JRM/ZjUIsP66pe1TNE2pSsCpWaVA8afZi1i0JX0FjtxVkb4uzKXU3OkO7NkvGAu+ZDp8//zNwXd77/t7b168fek0v3okdKY0z6cZHHSKylrNsPKLRxjV5Luswv9crd2MItE1iQmo+1h75W7VcaxwIyIJFGteg6cskSKVJonWqmb/22t7hPjV8ZHsSqUB7VgdkdQMDYFKv0NB7WA5Q+j1AZRhtFUNCEA4Og3KovvoOqO3UNgrcwq/3ry6utokTddqMVE1F84dBlOTazBk8aY0MYlwijIaxqV4lhG7Y0SDFogas172uLuTXc0Wn4rFbDUd1TCTg52BfHcsirrXxsV6gsRVhZwn0soDIChFO6jjCd16ZaFDnFZhmoWFiUyEi+K07ANJoz1UeG/Sg9XzCzk3rgjwnpIGNoB0K3s2jhWvrF2pWzzE6hr9/WrvzfeHPyQ8yaQsu/h7rsHaz0B+CSIxCxgDRWg8ne+6vdLbuGlZHUJa759MiuknNoOtdsNgRoxfsRM2ESs4yk/Zvf3Ni8Pyern/Vt3F/MvP8B9UrrgrMBd3zzktr9B3YDdHdYA/P0ySwBvcNq2Mms8VxvJFvNJrWBA4qEd5P05HRVIZ2f3z5XLe29o6WZ1V3TmsV+Dgs8XZ1riqVuXOnx//5UlcKRlIMrDawvpPEMi0KJMJ7DKmF3xJCndCn0uvDkqjGmOvXG65vKyw7t4V08q2wFYvxYgRSeysmHLgrTePfqSvItwaru/GCsOa2GVOVwj87AAo92Ekh5MVbcPnUCLZZ5Of/vC8vCg1OAaF8Q2aOxlfwo5wUp4zwKWEtUT55/oGJw1HNDspJrhzLKhENCvBG1++WI6tFCTQYoe9f6sVOc1JSIPB4H82Yc+4KhbA9zd/gGYGOvU4gqfACkxumg17YICQX5MdAw7W59rzaP71JoCU5BYbAEg2UAhcNi/TLZYLqMruASqy39P4DAQoOOgvlsamErhDFQzNR9PXoTntCMyeNTfgAJ2wTpGLt0MqR3BZ2iTlNXlJTK6KGxCayVpP/b7HzvLwcuwCvsQWABWhi4RTwZuNZdvuFbIKRhIyxkP/0//u7fsfn79/ufey/+7928O3eYz2Lo5dnIdkaDTB5FHA+cNiDVM8Z0GkuZYfEBqtHZRKafh5LB5gcTHOEB1kdkCsQJoZL+i+A0l3U7SSzuz5VHzst3a622olGU5w3Fp2rXEIxzuP/rO7Df/biZBN0Hsxke3d2/eHeU3DQYnJHh+//AmN0P+8nZPfG83Irowhq3nyJ08ep/ymqaXoU9VDU00syst+jB8F0/Kv1UzjASA3IlTEeJV+WEwM2bew6pCYXa8CgaVN8n4TW9TaUksywKD1PFFWKeM4UwBXkHRxuBCXCFZOksUoBDR10WQVTRWBWxkj1cb22gXbxEYWxVV0fU/Srtz6odVOywjJqEErl1dlOQWm+k2E24qzPxjcHwzacub+HOvWur1NU6/MgDR1Cr0RxsWECIjC6rje5FU2wPETS9UrRDGV0BUnNxgAd3x2HoGtsQdVi/mQBijAwbgYj0aTEnaVsq0RB2MIfCg/3Fo44DOvXe6Iwx52djJkaTGBVa58FgGQ4/2O7KVjk0ozNMnbznXQ5rXDM1tLmxIJ+5zUtuYhL+etPAAF1PCffLNH33d3YgR8fMqdd8F4yThBqFFmaZZcQrGJyeV4WCL0aFWEiLYKtYt1CZbw6uIEp/E0qhr9bjAVouxSOJ5peVagzXKzAIfGmB48nXJnHG2LnAA9QLG516rPVkc5WzRua2duCzmVYwYyxLFIbfMcd+RhiJNnm9ComgkUmo18xKrcRAFbSFicZXnGG1Yp+xOTO93Yy7YfbflL1obpVvcWtQ1XY0RlYlsEWNuq5OWlTdVCjtX003R2Na3xpc0du8RALJ1yDWih3gkdn67GIOECAZCskuRe42lqiuKzKLKKzZ1GNma1AU2Das1AVGAt2EPuil0INkUc88RGzU7vK59j/tDU7HHVvz5frNPTWWsR5K+CIKYc9n9ev/oBduP36n5DrBDl32DOUJcioYv+q7gsDphVTsYnC+MuKAgLLOP/z6YUCSL+j5Av3Jtk8FoX3kMQdof5alIsTKmjWW3gpMg+NSXFU0X0E10FiH4/7h/+IDtYNP5haTrSJBtdX0xQRlF/sDWjX/yzuE4a7cUKSZ4pNKN7Dlk2VNSm6YFdDr6Vi4tmOuHsTQ0pVmlWwG6r8BI1/LIJ0pmcyLYFUv+iQ+CZCCze9mFLxuE+6eJ+cQnD1QJDFU5udMorxNQeD7MW9mg0PoMxa0fVBuWRC6iaV0XNO6ewFWifunQCgG76ZRfkF441GarTYPqBusuTTS8WFFYg6IhdFXc0O6U7afEPrFtNY1ocGp9uMpuhrns1925d6FX0+u3hXv8DCOJeuR/ug6roz95OKSww+/F32C8x4IB23nkwd9kOrO/mNkHozz8c/vD2/f7/fn64//ZNbBcNi59K6rkrPfzlqYu6mFpDpmPh4YiyuOJaC6afEPC/Zl5Up1YU8ZZlv9F90IPwo+f8/jvhL7A8UZa8nE0u2T7VOg6K/z7dP4yj8KNLv9Ptsxf36UwQe4AH/rtczAinbMamcNfkGkN8cIS+GElmSIG4Maobpw95X6jggG9Ov9GFcYkgXUUtgofHKeNB0BIrULRH/nHGrbwoEF5ttqrcmTJUxZOiZg1D9Gdh+BbOKuV1s3o0nqtlDOvnKNo4pVEbvI5FjuDJXEdHz1++fF/nvkec8VjDoy1FeD06voVsitEoveGFs2yPPDjodxnoUG9y66Ar7D6DAxuiru00+BAdWVzcM+pqaII3nM2T16gushK6yDsHDKZ6h89dnRMGlW42Mg0DKjS5qShKQDBr1IR26Iolpwbx7Wnw2muSaMJcAcYEvEZtqPNSR/ejtQXyVYApYVRO1pRA8rXcKAQYG3R4jIoNWjZOgn2osLkUP8aEp2MfhfLGnHhz35ARPSwacgVDSulipI54DOpAHeR1yEcjDMnubqHJB9YGA5QAgLxURnQPj9fNY7lhtkyjvtojnSoqUpF1pgOOqv0Tej6XCRgB3hwVLcJigtfmrnYztpwxhD9CL4QxjfH6CcU7YxMTNs5mzcVGLFdHn1wt/3PnzJHLBXFO1sbRLY3WFt7BNdenPmhafL244JqSGHs8ukGB3qk4V49VMx7mbk9zNVujEUZMPMWokSCCYwnAkCUiHjUuhPzpgwrhoeC/Zwi9JrenfWJt/T58Q61Cvy9Hag0doJr+mIvUkGrSsf2ia0cG5vHBdUgYEgAaA0ZxCyYaCHhNLm8Wc8SH5grNKJ3v4qJLXdEhs/hk8JLQLek1HGNp54CHnjjWWRQm0Xdyg77DUJqKvJM7oJ2Qx3wGGhBSvN60OKFC7FTWl+WKooWTBG8xMc5Mvalb5dtHwWAQRQBESJwNkENJxhPuSXcYqxodudCzn0tFnz/5pttm5sMu3+MIEtDJloJH6nbUhf0GkX27YujUyvvIXzaRswgIEUMCuHu3AIcoAU/DQ7SgTOLdTbaRi10CBVeJI8+jzb1rdPBqabIbgguE6RcCHEA/uAoxl8an/CDMAfM5GxKGT/6Cz7wekAAlfVg9ItfrzOjwRDzKdRYGo5P1w2UDz0wcXAPypWnUZRsSBhgGDaOQtvfifrbEF1t3cH6qTCUi5ipueEzHpkFHrjHOhINHVGqMFglsNrboAJhs0lBuhHIlMHU1mCsxWOCAbRITxkF+qgniVQnSTlE54DwSg8QZ3m+RdAjkcugoqKc8lFPYaLEGqYHS2GYdV8Ph5Z0wtjzCsHMkWIHJgrVYnExuOgIgS+aPl6VtuyuLLOrJg3BZBQpXjfyOD5ROfGdE+Y4pe+oTHA4KKiWkPI+WSgi33bgUBrfsZXtidsnxKOQxxd0Rbc2j7W2JlCjv0KalSYnvL+pErwxSVTY/XyA4CxeXQ3nZ27/l7VqLpMMUX9CLkUFYQaSiTV5MZG4VoZCtDbMHooKPN6gFukHWYj5M8fdwhvfDrKdSVSdbYhCgFfFNuVca8bWREq9bJYTNJyO2i4MYvLDKamROjQiPYiIpLDk7gZo/UeMpuqcL3K2E4MMj3M9aMXLrznb3UfcxERl8fdz9kvnMSTHqe/jJn9xQPNp+guHOl606IGUEZ982BguPfa7neKC1yffUuskWAaeaFZonpSx74opMvvd4GrIPuG3rCnk9+hIzvCoq+A4Nwbikqm77pRF8DdcW7F0dIX/Z4GTAXOxZ1D3pKMbbXN8jswTuhfzSDP0v4Sta1ZHBP19hK1nJFyQFs30I2dkdStdWqBQOfHsdg8PFlzIlcO3URSMOw6Ei1/kYO8PIZN2uLxgXUMCFkqIkOmSZse3dVptN3E26NN9adV2h04E9pGrGqqkInWZ+Q7FLsOTImQEHDf+F1tqdz6XASJ4U07dandBm1YLUnSCtHxCqiMprhQ8NWXgiCVMYYiMTzNYn6PRR75gVhfSr7dFAo1GMsGUMYYfjyzU1oBG1m5N2yegvKLjLsVyENncD5bjGjIQifoXux0RZoJkmwOgokznDGUPVNCC49/pQ7OkGHagBlV7rcmE2W6sKlV10MHiy/QS1otl3aB89GLQbo8RbGOtbGkUYQHdoFEkHwWW0NAsadXtDMLeZMZRR+Y2aN9CPcB4Mn+LXHay5HRPeqNTsjjmCsE56loPD54cfDvqv9t/sHbDszdWEKpo8Y98GFo7CGQ7LVRV7rQXipqqpSOGOHu/rMO75nOe9VVs5B64JqADFDQQwL0K5qls3f9sBEevpLrcG/v7lL3+5vTo/sVgHMLIFbrC28NokZlxFOgE1GQdr0fK7VCt/MAIRi0wK8MDFgYYiJzVDDA3a1DpJu8lR0vbeKKbMjqU2Vnp5gSHPcwLYBR5Bfk3Ocyg0SxF/KJG3ZJazfXb5mS/Da1fn0zQFQXQBghrL1TA/mzApTqxe6KUX7iOrajm7kCkOCgvE6A1c/9/CRE45sghygY12F0FJz7MemWIPzCglQGSCNNiuAUm3q/mIArJDd0CGRkcWB0BkYLqi62WxRnVHBL22yfXSHs+ETRPRxJTW4SVOUyjiAwOc2MGhjI927tQXqgDH5ZX6ZLmJTaImnmMBCBzgIRPb4cuupAg20JiGKWWApC5mwk1KUI2tSPocelfbpNddq0SlOVWV5j0yBR9Heo91BQVLMlXW0ebO8bq7jrRurbk8RMcX+gu2BLmk0mgmxGCbTqjRp1qqfsO09PcCvJwvyku8fJw4xaS7RWbTiUXJViRBY+W8KfhQxdLp126HBkzNCG12ZhQ72ZGUcNwOJ6hKdzt5GcWgiXylGS2ajpyQ2dryJjEKie5WHg+rwoM2qeISXpG/gSzuSBH8Yef5FHGYU8Nto/R8NCLoZq+aqA0VMm8ymMXRGq3Y0rVmhhrMJ0yTTGA0rcftLpnejEJXzLuuGNNdsyWTPL2GFf+dLGxa2h+LFInBJT6N53PyZZFZdo7f0PFoC2F7Dg+LJvraaK+lLfQ2hFjUkKzfVjBFqjsSIpPsC5yWKN27sBG10DL+qOXqWn+kCjUZGl0wyJdCi6l00mtqmqNAKWBVTsepw1wUu4dPNF43FGE4BEqjOO1RrcTj5JqHATuno+e5URTQuQttLWQETLnHwXB/gcFS3OqTM6z7XbVtmfgOHuIjfHdc737yLOtAbsNjqcLl1hULEvOP5+OgXG7yuTdH4Ny3dJg9ENfScArqDoFqZUOnchd7m1wCfeRt55waHeCD+JGJ88aasmNOEXOJyzQjTdRP6SJNZ3S1FJJsO8ghBsnNeZxSUK6e8ERIJZTXc3LwqWX1wv4eJzEKQynEhzxDORixAbqr5RCNBgnMdVlczFts1ofvW9dW9ym3Xr4INEF16Zpd9UnhK7uJuy2TCD/N2MicTZXAalDnQJM3l8bI2Zsz4yRHRrnIe1Tr7F377cQlqaeWSq3LXFkkX4S4b7Vjs0MONqC/KowEGNJmmw3Qo1H7OqMAgNU6IcWjLov+Hnfm2QTNY0pnyerwok0I5fCkA83qKGR0DYAahxk9AE7Q4q+E/awdek/oTQf5wlKFdKkgNzaCb53KwPDNoXh5SxbuSY/QCARfmq7ZxfuN3fUjOPGwsf5GBW+1yO6OLTn0qEsGR++/e5E92tn+SxD7RTb5cOTchdTJjYct4A68ngHBTAYdf3/USw7cRXHdL85gJC4k9gpeExLBAh2OKusjEtq0mjKEOeDI6ArXoBYwIh/e7P9P5lb6nQoczS7g8Mazw995AMY+rORSIMub5iwz9ajcw0Ula0Tvkh6IFRfjZWWBywl8ggH1GUuhVmjo2xeSC1CIFBqViSqPAw1mgevMFDw7PW0n6Q9ZH5p+9Uj+p1s4NsHcrMYgYPyzuCzEX8sPDt7VUq2NgwPVdbwD5ztyXc8edb+iiLLlVbmIVxws7KloYQYy8wMQLBCXmWlpIB7LrhIxNZfuo/NKqNKhQjLxhCb7OrnAXcyu0ASpQvgZDMxcQLkzjiVm3geFXY2no9lVRnfUs6ocxa2P4gdgSGcNZgTnqvHw06RkEB4hYIrlEa274eJmvpydLYr5OUb9Q5t/LhXGXaYGCp6O0XeDHa3+VpZkMnyBruQBjAeVZ4IZELVwUU8+nfD1C/oscVdjhvJjsZji0k6FRUBZD+QQbCu8aRmDb7TvrZboQxTD8pvNru2uzvE+YBP22CUHXolLgvmXAUTmn+hYm7VdtIzHVPaYIxFBH8kVnoZdPQlXU/0Z8roCw3ELdjtXKGD81nIZaEhahksijdBi8U7SImp8xRhdt4SCLu0JidMhIleCmNeScAAiEQbXYi4sQKQyj/C5ZYM+KWAdkKSbtB51WKgoJNPA4N4k0RL4Wm82VV8s7ktgQ3pfHnLwrfkE1cssA3CoByKn62EJFACEGUTtRSte1qF9Qd/lTPcse/zn7e3b9OQierIxCYd0Xirqz7DezGBu4iB3mqgOJSNdSV9fGrtUYWHp8Kj1OcFtbVROlkXi3GJJgRVLsqfCKPHvEWp4H2aPnsA/j78Se4ZEo4TL3rVRLVI3w/87bjtu36l9mJIO4ok4r3G4Y60LZqqTnU5mxfK2OkjwPyOZX+2f1iYFUj2lxBsPik72YJQ9OMke/D178EPvweveg4Ps+9eHG7W7bTNyhM/Dm7DCI7DttWNsiRAe+EEGOJ6uYoyHGt2hwWPd5C9hAim2XfX4LQ8ffroipJlQyn7J5so+Psu3ChcyQ5tcr9IbsETDAFrsjhyL1ktCv4INszE4S3hy4QYduYWA3dncqb1WksTX2+HiNMcM6iQaeriO3m4QzVqfPA8Wc2SREOmlwikUPUbOBtUf6VasZe0QO7ocBes2PjhhvGEx95zMYH/vuxswaSZZHyzPF+z/3qVE1rzxlPTD61FS2f0B9R41q+XQODXFP4M4aRuK60Ab9/VSlDwELwCsfNTdsE3DY3G/rlvlltRJ9xRoN+gKXnVIs++Znrghwr53qJoOZYb5P6SR2qRhcgmNbewrfKG+NyZaZxCmc2kLUaMOe1NlMjoPoNEYA0fC7mIolH3o/MmKMNYKimKENZCswpcIq4pDLlKkRbQDPJvMTgovu9r7sqW3imzJPaCYKWsso6HAyY9WDE5jqI7SbXmLs5vhpFQUR61D7gMX5SnpfNnm7qEcQh7GhREixhSv4ArGh+POUdwRdAY16ooTFEl3bZTUrpprsebHRZKsrYZ4BsX6NDCy+RVzyDn/vzKJ0hqcRTyfm5CcC4545Vf5LDshELn6pXb9bJOedW/0WJsaDaFu5yayDKhPkE0k9gUNiby025DAK5jTCcS0LkUkyqACKrunXYp66E3mYQQdTemXjsQI3SNWCSJdsw39b7MyXCG6nW0C25O33QS02HZJb9+drV9UpLnlms8navtG8V3tpoe/Y0uQuolPOrnahdTsOKLk0eVC7S5dknlKCGSeKJlMtzPSCqaNNyY7en6aQiveL5tj9NaFSTuR9bc03w3vSiWXpgQuHPidzE9dcYg9pd/DJK5AFBX0e4K8JJLFWtqqkdTvHSr7vkQX/y3xu8MCf9+PIy5uJpNXmhEgnoFLjlE+OEvoEiHoQ+yhSE+K+RhtyhtNlikuyWh1Ma92/deYLPwbKMv/SLMAVBwhTYSuL5o7Ki9WXtBD5xijRfkDMFYmgc1bDwuSv+MjajoKC4LWaXE+Z6SuIynVEW9DKf1AVSJtNwfIxWWjXfR9kIARI4ZUPeWC5diOxtTxiw89FovxZLWom6bQ0C38DkMDBnXWz5z3D8qlCytEFzwkKpBuh6tm1VK1IgnudDWp91c359gHoRZ7J5HVh72pObXQaE/qwxYwVjr7BQnEqrZhcOW9GROx3E0k/Lz+qGP/pZ92eSSk6NYlBgeYwCk0tTbZOhZxxuklY5UJdngPgyH0BmheNqAwr4tiiSDkM7o3IRQBsXrx4vVgKZUNyAhhfOZvotwllb2bQrh01IGwzppVNkY9R5AvrBE7KcVdSar0NimqOBPLYm1Bv5yeoeWgH2sfm9PholQOV12zeVld+Za+aeBdFWpxhM3A8BkigF/d5XyS2VDuzYyJBtTkxvFD70AKus2DyW7urj3BBbwhSkzcyVoysHhmbzPhoroQXxLE0KPkIRlnm9IcbR8jP6KvO8ftljY00p7WqoVzfqwxjUpOl9Vwxe+5LXzu98hkvBBqZV82C08oVPz83T4cSt6+fNvLvmM42ZNyiQRH2qOurIv+PuL0L9+XjNF2RzfR8cX8oqg+NV3VwvFtucKTN7S5OBPMj4VUUWFuQivCEL3Zu7132ePtR+2EsZTQXuBnTC+kejTS5m/h64vZaEXxOKqbSn4EBleuD91pedXnBKxNbqcKQv9TWHL9fpfNals/BXOU9yn8R7+f9zL92olTEIwdpjg6rr2DyW16hc4U6AmR90JX1F9MQ7GP5bKgKtRqhWQ7o1KB+dd+8jQiaCcPA2aLjSHRlqDrjJc0rW7+LhlOr8yRpukuxFCgC6egnThGnMvwp10/w7Vire+t6wKORLoLYbv1Kens/PR7j17/7EjT+jbCm1s6tGMhd4qJBZVUqnygxbiUsIaI5GEVaaa2rbNGrb5p0XPNfmwIdemdWzhZRxvQkcLjyrqespQvR4PP6f4Isf/F7OICZJsPyzEMK+6yv7HA3/fj5IXXqMIi43D85/X4ejyNpQXah+lesJKICBMXbwJED9a3I3M+Kc+LSxIjCwTQzshl2YsLU7xLnHBxzuxgKTPBwFdsZlJeoUqDVdLkUD29EUMBvBZw5bEiimLIolURFM0WHyBnXILsWgiktHpHK3y52klyD+q+sPFOIKJ6fCIR23nnmXZ0WXNMo3ea3VtRmoruBOBD0uav8Bqr5atZ7idBkCy8RWz7vx4DydnqY7YaftLdEZhc9ttM8pPwQ+wtyfuDSXB3+CNyjbDYR87iMTgEilllVJAprHWJ7WdjzmBEnUVmOyyRKWRNgewBCYUypeGvsOCQxrRcFy73tqJ9sZNkub4vlxN7WQ8kR1G7d2lsg+fCJ+T2I3xHpUqYgvCNthhe6leujkXHz5uHo1vn4fjz5uHorvNQL3eRIr4kAbrEdSJZ/AbSM9kT5Lf4XUhwkSZDO7G/iRQX68nxjiR/9KvqCR1vLB+yDjdoGzgqr3c3dzqk+LjFC4fskODM4BFfGEeEtrug7WrFpyZmaP0TuNjQVYn6v3GcRayBmHpV82OQj+DRZ3o6Rp0EbBYIqT0WTVCVtJujXvbYww2+ufO1A9R0G7HdbaNCyGYX9QXicNNRcOYJZx2bG3aMvOQMS1NdcVGtFG2CbH0zp8tkeWE1xy5joRxEDcMEQM5kgctbhjhtCpXA7lLdgNnfaNSSIF0EDE2OAjiDOCEKmuOP0awtdF0L6yNtbVRozW7ZHKPWgPmRZxDZJbv+20kWFs9zD5OFVFs/5NKiModTqs14AcW7tFp/3NK292IfnWiQYlVSfLOUA1o4Gc4xK1ziQIVJgSXAymzNZxWCmd8IAHdqbIr6wNSYPrIUrEYCF1FCjDiH6M5SzI+HFACNLPzGF0DgdGnEgvkmCaXP3+1XWevlP4vp2YxPRFDsjC6yziTYDfylFu5KD91xwAdXcweD+DigN8ouwcBfOJulyoaEemlOHkoUl8l13lpsK0mZIwIDHlG4JpHgVbpvXZ2Ph+fxaXo1vRCUFAc5PSUIf41T11a+wlIwejpPqpnDlPaKPL2H5hY4cKUM7ZeFjXlDEoHrWS1naCfJJqujctOqIRclh5wjm8wltFwhuhERsq9BtAbGcFgdZ7LXbGNYb1sVRLubSmgdG3NDaUdhbHhiiBAdIptlymFrsiCg131iz0uEeDeGx+Jp4+IA4kBQwMpMg+zRChyw289AS6KYFuflNBvdbVy4eTyIfa1TYtD6s8Hp+FoRGTo+Clpd32OxGYyzEAWtKgmhzNZDIU7FcPsxudslhTbnlKQeTury5IZTQW/CvjWrVxG6C8OFtm0LHq1pwedX2KCDNXdqUiYPa9OYJoBlmPFOCNuKsc6EDcLCSC2IUChIE0F2MLsoDVg/6/+FGbazqwLjmAYFKal4eK4I6YahaVLhJEuKsU14L7VlccsIB8V3a1Rbj00dGtPy4VWF1xpkCBRptuwuUT0VANVrTBB6KDak+PgWEBqMYcbNa3Qfv8vkG3cfAoAJmUNHRUsp9hac08AzXFc2W4b6tpjpYkGo9YHrlHt/BalMS/81USgN7uoHQgfJ2uLez34UmBPaWc5WxQKkV3Z1gIGdIrQehe4iVwHYq50lecCTSP9qsXYJeZVMafENTLd5nh4pMnpwpOyNHnyfQmWsHWFDAWGXPY52ALXZKB48r4NY6BHCWKIZuUGAn6mWAL9wYaQ6dHvT9VEt0fdmpoIrBaWyaNHN6ruiQX9nYMwQYx/p9FPBtxB6DeLv6j9bl8Yu7yTR/R4qNV/cb9GsmVJ+vYItLun3RbtIYxncelhJHjR8I/8o1IE7HFX+T43ZmgNM8vDhWxecQe6s7qiX75Z71xdgp0TKkSKCy7zJMoCtsEZBarmOy0rhNVhPg6oITn5cc0VxF2ba57oNR7jgQiBYlL4MC1x7YSJ4rZQPbTRwFyC4Bgs+zyETF7PL8aisWOMyHVtzXH/4IFiwhxwipkKvt1CyIq+04Ljjymg96l6zMIkz+hh+BFIvy2iLOrasM+EIhE4bvtkFDEX3p6B2aRYZelR8RyOynxwN/LGNfKgwplVVTbCvKkOTy3gxXJKT4jJAyS3xiMuRuhYl+b5VS9IUqWU2I2A5W+5FOSkvUUB8t/fOqKBeuLhCdDf/+HEne/LkCQ0K/HjsNEXkB9zNWpgKE4z5MknNnr0Yg7vZqioT41F120oiegx6JRoCGn/eCGccDrS4JG/tAU35YIDaOZCBuN3Ds7Fo2uvhu+IQZI1bokaEiE0vnTm6BhfyBZQEzt2gBjlcFNMKjVTUgZ8DGdFqgyl48f3+VkD6NT0II7AHPj+b2CMQd2ATnlNEMrOM7Q2VDEhSKoIXMTeSMAYcScBw8OKqibc1S7vSWSf0Al20Ljh8oFtuutTuFpGNBd6yxhw/I5KJUTMquHtUamipUEPyqG1FfiOqc0uuDf5tPAGLKiPImQ5f7ctqyOox3T5bZIn9ODceVGHIDwSj53HSuBAxhPg6Ces3lp6+zzUBM+x0pvwrj3pfHpM7I1N3fWwJw9tvu0df9o7jKbnLukoUdbd71SO+GrjW4gOh806X4HwV9itE8Ij64+F0m/sLMrqjjX0UH2vMhk6pVgsxXBXs99hIUYHboc+uOSSSzIG3VUSe4xHaV2LEcpDQNlFjCWfkaV+wG1E5i8dH3uPRRD2yUwC6n8yWFdm1wLkQCyGGyfn7mp+enYpVXdW4JdTw7LC8BMZzXHyIISXHda2NX7oK64ZNErz0X6uiOo+47CuM/666cwyBV6gOTAx7QpWRoEJQSb3sgP5mUwq2SHNX8a2QnwJE9ahHkY8+1GKy4WiLWwkGISU3UTkZhmto77pAZ/YeZ2RKaeUXpLLpqr8ozIiP9P65OUl7lA4ny5n6GNxh19phhRga/Jr6dMSKI1EQtHx+Xkd1o2XDj0Zjm6EtXKg7rmSzPg62a5mXoECiFT/AWMoa1aQ9jQdJm03oZBDFhG4MfKQeqqdOZRjY+mEXVgaIXdXyZqILnkqog3UIpoMm8AKxgNizADzmo4p3a8uiuNCGLvUC1VxhjacM8rC8mjlDJy0/KGYweLn33fMPrw4H4rU84Kgu8JN8G504PJstfZ0YRVNEzHb6KlNsk5lBvkO0pEUA5j3luB4tN8rBFqZ4/uMpJ9Wmx8rNui6Ukust/tA4otgPA0VQDWLG2cplGJD58Qikgs3jh+VOzf8FGYN+EYiNlgLT4b+aSZAoW+4kZqvFsOz4UQ/jyzSwPBNYAo4RqyHCInWzN8DX8MwkoQTlvi2Sf/VG35NWRL3Pnj3Lhm5WI/23S2CW6E95Nbso8172U+4KpV8wKvA3p6bnv2S/WKNd/HDGrsvUDTMkSS6hGKcRbASZMCIrmyM2IXrgZ1rxxLf8IjBz78Kid/M6E0wqahrcQZRuzCBKBk8G1JQUJERKQtYCjyhXnRSbc9ZwTP4GA3COWD9oWfBgwaF0Fd25jX79ZIAQ7gRJUhe23KhsRdoWVsmXg5FHiF4Q+PsiiouK/MgDbI4bGGY3e04eARImlw1KOXr0P9GPRNCMyFOZw9/ozh1KEG4DHgwkQUS0Oe2Ku0K0bWCpYThUbG6IrUDa5MiBqCA/i0badMUUHnsOqZCpM0haUKqd3vGaJWPNT4t2eukQOUm9RP0JjA2jS11zxJLzgwECTdR0GwetGY3e6XRXx/VZzwN+22qwR+2VM4on1wQx3+DYjUsSvz284nU7xmYJj1zuDppHaVylQFQiowcWud25IbB31TRE9mtH8u4n3WR9IdacVJcqx9Yj6EkN9SAx60HCA5q6o0XqDEweHJIgqVxwc6VUqKmZ6OIcflYrP6uSA+b1tObVFJFzRONhGNJoNPyArqFyQnc9MfCu4VmsNibDk3WlRa2NrCkQNjoq33mjTIc1goiS6hULpY2XOT6MAmroWGoVOrRxNW7+XQVuElzKv+qzbqoTnkrxgkFS9oXls0tb42gp9m680pUm2hkbF53WB/kWWqqDNVITb1tI1F0emdu6iqnu3k0SvBu7We+eT7+me27KXcGGOvEZKY1/BW496SpY43wHMztSbXRdv376pU0/6g2IW1w1tjhlloiez2TZm2gcI186c8oUejo1MjaWhLYeuWoT+zQ108F3r7NXZC8RxmI8tW3kc6rY4f7K4fwkRuuiV3s+nx8scXGTa6rVqlX4mNVq+K6bvUDDF7rSd05Bqmd3gQIxT+3Cf0iuhSmEdAtBrFClYjhnPK7XWGXGZiLzVXUu40vDn6JTby/r0Hf4IO4hceQoTt1JQSjWDxl994lWoG5tPoE5ybE9UWBhG3XT71PoJApJMS4NdJIe1fGfrSR4Bxgu2m83d2oRZPfxsjcFwmXGnoa6Hdy+fjeelD8K+MJtHrync/RKQ4CjPuIu7u5sExrgV0/ifQUT0heTGsWDMH+wD6PKjHUNpPSY5S7SFnxBZYj+RbAYioi9LCcT/FuVZY2HmtBdWCl+afcCh0d+6LV1Ltkd7hGwD4w67kBlfK86avVY+CvZq3PUZaFEEFuUL9BihnQ9WEQNGhAJFxPVPF3xw/cG+NrNaJ+GjBzW0jgFdMVaXgNzqMTo3jn1LZeISVVkHMFMsZ7JSrck6IIqBIOVy1XVzHsbWGjI+Izvs1vkhzFjT5XlbDap2utti7SuDiPixryAzQMlDfs50dcwAWXtD43aHJFbiY/Tq1/j+qc13RY0juRsEMj8tU/YmEhFBynNgnxfslLmdTEtzhrnkNNeUJrKREetOE466qf5luO8nMxpmk/Jix/xvIBtuQYYdr15ggGk0G2D6q8yUj1W7UT0WTgC9iLvDexzD+mlN0CxiaAdydmkHnYWGwCStXdFUeN2fOHrr+UbAm2WF2Q/jCrhBVBSxkbrk9ns02quBheQatTN3nIc3LxADpFU+tAnp7BZOd4q51MgtPx211Xs/m7e3QLGw13ZxT8d375dqjQmWU4LhMhfwpdYJrzCPxEda6GEcyPfDQguhspNTX4XhKWyPiOnBOCxDF2PeF8oKNCCuXmisqlOyoYTM7ksR1r+ALHmuH1A4FB1CxU49E0QyelVojt8B+aGV1sXXGDRIFsrKP7OYKC7fGXTJB9QVyJ3mnBsRIChYsSZK2LKGNZXAX6JV6ZdxhiG/ZD9q20lWMeEjVVkMSIcqniPTSPNMn4wSNAJjDBxT8J7RacNxMMkNw8D/bJkgq/EE5wuSWrFtRhNm405p9lgayCg5nqfQJjnqAyblygHniYv/3ilv8MqdZFKI3E3X2gPg8GtNeWlN0VVO3QsdyCL11iqAk3NKFjV8GqE1LTOO+7drKKLYbnNWTPZWn+tYVDhBF3f2MuuxQJdZSknBmPHiZbGe4UrbiwVitdlUd0wlD3hPw55sAUTczKJgl4Vk5kP+Te397DIjAT8pBcFQcAPLju3ZoAPOY6JHEkxRNL3mcJmYJAZ7+OkokL092i8QNJoUTK1xMcfRl0tfKKpiH/OxlPK38niUunSNC7pCyqqKudWVqc3unnSEqspPbloCptVRtexeNYWLBnBTdaWjCu8Y6XUYYmQAGcR3lb1wpg8MN47sKCmlshpIMzccOfKbZliwN8WFd6JgjJ4VqmcNRZKtEcsxkm1t0o0dGtAQkwpgeknE+ZuBLkuxMrYVOUZqjwWnt+H52laYLu+P0dGac6iLqeJhd0l58JX3fksDp4q4m5qvtIo19ZiFXLhmm2YYkqNSBWedolWebsJb1hNc8KmYAF0iKD2O4UcPKzlpbkX+RxT2GtMlFbS8RRZy0GDy3oCXdziUquaBrdV0A059wEjWiCJDhJMS/guCwHEJinkBVbEUYNmC4pJeOgulNh5LLoiogZAn0G6uLmAU9gn8U+bcZATjRLKjr+VyGLktzhHHP7VPJy8FYWkEemtFpCI5tWGQGPhAbr5cu/bD9/XL7pvYRuULGJfn0cCONit0wbiktSR1EbH2YJPqSxqNmTFj8/rAgVQbckMqvmtJag3Ao3YsA0NOtSwxiA+fRDnySfzxIzCbODZwwIwXtI8RAD1Rsx4QRVL0jdTNZ98iK5Z0b//lnQbIaGcWhAlWVrhVApTORW4KFsUYpFL/Q8WPooumRY2u/awAN86NR2+oLjTcY+9AzD058OcgpvfqmCBpGQvxKWruBYCAUdjKcobPnji0K2ormhJgTz/Fk9YRMWkIWxr0JjWt2hau/9WVDPkV1aisRNaSWD6aG+iSna1rbaGNyaaFbeCvZRJExoWkgJogxLeF1deSMUAOqhEOGEQI4mVQgbBYhaUraZVcVp6w/YqauuiuOq78nZd0eExJxE+uGZ/qHDE7CRpQ6xFNXrcYuPXoGC4pJeSBOT8EkQSpoL+342X5y8HNnc0QB0z7n5NT6mDlxIs7Mzz+p3aOaNH1Q3IFBeMa2UOOLBBlNMqhkU1OaCDF8DnxicI+3XTRWgM9s22pxmHzgFEk9PrPNoJ36Lm6/nBi/39bEJohhWamZyNl/i3qM5Lcl7GqRkSLhfypNFsWdUCKmlQLzl3nI6RPrQt0LzhkKJdFeSrjyLqqENyLeMZRIaWP56DtMYGM9QLstWnEGkOZgEb181ecfwGWp1wgqdwsbPoXIPne+qJrVz3dT9WJmrToy+/NIsnbawWMFm7oNZo2IU9ps3ctUD6G5qmw0Y5PgPisOCcmtzRTCt/893fXuKNcWQbF5Sr5vM05bZgVyO/qefXPR9PMkTwXKBzpPj4MfcHHDi9tOtFLMputTppLfKjfxSb/36++b+3N/+y2e9+rI5zjjHCTa9FQ6zn34Q8X3C0lihX3t2sm/JTiqMezOsxqbV4KZjTAboq0wwanf7wfDX9xCr9R7CBZTtfBZrQAgiYQlt2UFeA8Qx2/U7Q5fen864k8W9QQW/6xieDnZAWYM9RBbhvRfJcACl72Qmk/BS8pVpReZ7Ypbp4NdDiNpsTEkbnctE28fhDKtAOnYqoOFYx3TIuJK2jYxGxKlhLo3H1CcecvOAR2cLhNBOexCy9/YbsYP80e2ja9JANuhj9dLa46agsr0uQotfBNsWrOaXJQqCe4Iyn0da0t9BEZDeq0W2JdNQQutI0rkeSjZw/XBMzEUPW9VJ1wTrehIWBtyMaOryMDqY2DmNksW3K89PVy0imcaEFMRwlx2kyBX315NNJWlMSmiQGNGItoNBbnaGCqJXU4SpDCMWYfsODpCkwcR4wb+OzStASR+X1s4uepHV8WfUfag3WNyIUlHOaaM4Ym3CSoEQHgaB1+dUJOtxXwBgaDh6GE4U86FYViskZ1GmL+APgR5/76xIQsSYoc/+mAn/fjwSBKk5mi2UL97fdL7e3OxnGWNrNP0w/TWdX04yPULm1GTghPOXyuhyuGMwLSGVYkM9lwXFhyvDcxaThA2cM6fSD9bSlDQrX3FotJh2K127PLbfX+nj7MfnVbj9yRSGnVngCE7zCxa7BgI+z4Wyi6Ai+ubIWCHrG5RPoEKxofKqISowOfrD3/r/33vffvX97+PbF21c5YX1vYCVbO92dDRbboWk8FoTDaBD15zet4aTaDTDvNWXXxRFx4VHwqeDb6+gy3rSEz2jlGKwIRwg2fxhN4gLaXBpd+EfED54XyK/hwEgXTLrABRnC4SrjvVCQcDoYRhf5o17k4x8zS38n/RWtKmdAT0WRnpAdOLI3M06BG9HJ+OwMnSLOYbuTors6D6fzcDcm3kESAXt2PstM8EW5F4c8JBlcoFo5aHG7dsLnW/JQPuCSN3fJ5w0T+FzB3TkJBUsEmxJ+5M7d6NhRv0C8wNCDiEGYI0pV4oZxBIsNj78iSNTeuwjZQZBvHHM6pIsOhEaZzrdXcOQ1OpJeeT3sDSyRyYGVKSwk80fIBh5vf9nJnvC6erL9hM8Eg4E9TQ4GHfNEMa7gqSvOv+WTpHOKeVVUy83XghUGT/WIS+7eGPQ0dfo5UMcb79kHRe2fuoI2D8aw/XKz3iPZufp+2Hv+cuCDB8qCqOqX1TqRqpoQNaE9qFLUjumoduGMM9/L3s9mHDTZq1ecxvLgfLaajMiEwuhknSBUl8TiKpSMenhLhVYtdwjffrZCj35cjPXjMrBgRBqYmaDRLkQ106MRtBBu3IYt1it4DGpO7vJVt9sdQHeKySz06TOYMZgDWbIbTXEuIBuQGUwvHjOBN59BI7rZ32crdLEJN3QClcTT7nBVLWcXgfancPBr+xIGV2Pdd2qy7mwBZ3l7EnfIebHoWLct4NXIV7nyQ6NX6rQ77MPBALe6rYeDMHglzuUmA2P6+mh1e5gCZtNIUZFcF9+nYZo2nhM5r1Fgrb15I2blNRFyStyC46revHnl1MionFRH6jM63CRqSc0qxm/+wFI62cZzxtQYIdQGRXA0pUZipxNYKWJ3cN0TsN71lT6BSkkmja7pa1Uz2odh6PDsff/t327vExKrhY8AcY8M7FGxZRDQgchoH9zwY6nLmjXvuEEEfhW6FkXBJD/+tJswD9OSPEIXmjLJw6pLvIAUhS0tZ53sfPfS6qcKaLdm6ikVHeXxZkEBVh1sWzwewSi09KlztKdlRbY44QDaKD4uaLyAeelixe+5/HDBJ+r12lGgqKtfu534QYU+KfLLZaj1lNSux2bcXC8di3WZ3dymNEqOSRmC2GUaYBGzPqO1xrwcw+bPhhDUppxN+NDw7mu3mnc3HlQb2DctkFuMkkLFLcOv0ZTXqhLVMdYyhISoAMICIK+35JxcZJ8VDNmGWHalXXAA6LAVgXxBjZhcyMBfsADOErEF/mDghv3v+q/fvtz/bn/vZf9g/82LvdxxCMhqKJLKmePs98mkHx50OXzHxtcbbe881rb5Bf+Zbs3YMQ2ePdtFG5+4R736NL7EGETHnzVmNUGy6WPHtu5uGASrlDiFj5GpPnwYRoKUs0me22OSGIYSOAYIYjnTK6kAPJ/NFyeKjaAdpm1ivtwkWa7awJ5vkISu50oCGFo3m++fv/nezKB9iAs+ymjRRKRoMgHlWaZnesyKch7Zko87RPL1EweXmjS2NpvJzlewmUgUURBGqPMUhekAeBrseWgEuWHgBOSAVlIwVa7ChsJxg6krkwo0gwmks/lgtPVghNeYLVvcZrYjXWkujdc5FYfgZ5zNHtmk/0gYPRdFNT5pcki3sO64kBQp2kCSu4+2vwoIcn0mS7m/t2blPusYfNwZXOqv9w9eZC0MktX+XDXQH6T6GZUnq7MW3UgTHoY/VL5gCBRGC4VEcB6+LCcsB7vYwy7msEniwbo0KPDFDLcXd6rn+MRsk+H2e7LSvSoWU4LpqsboByzQc7nIxrKIKR+avs5mE2q5qpDOl8s5M2LrCpR0FW9hMvw/XuMtS94/AvQm8uVgx6DVcogJKLSbXE3EOMFaLN2OnsKOuUwVZxms8QJp9DVJes4Ghd1t0zR1Bd4mPGzhBmYogDAmssXpcGfnEUi38OXPX24THYNAhbVSG6DJGNDTaBo+HL7IyvlseO4VaoFfCskQCBg3gaFFu2JqATagv/w3tSFe8NTXi0/U02V11PvzcfZF1truZO02cAl89Be6udrGn5QY//m32qUoMK1zNe5k/40DIN+9E0wne3tZLmD+rmLIWmkImbrYYQNR/Vxu6lMj9+irnf9kRoAJYRGoLljO6ALTh/aP42HbDmILDpKLDkYPaHO0RuwfVp8cUt5eOwy5viuliyzCdtA7ASvm9F28k160SFuZUxMigx9qQza/wm1lOVtNx2So+dWT7slXT+RCdDk7wcVUwGlR6st7eVCdGT5XXjAt6o5rZ+UOQx9sxvyHVH2wWe1u1zSSLTqg0sbS1r2d6U61lDRNvNXK+GUHn8beAA3NRtzuK0WwTgw3K2fziaCD4+lwsqoQvDHSKMu0w1Tyt6PeV8d4jMtpG97NA5cdJ4Ec6VTSfe4OA2yS45OU8lXvWFN0cjIYgZQk3bAQQAAwrv/0IpJDao5j0mDKRZdW3MLNne1tfL35jC2h8Se9qd/X+PrQleYalyvPDqxRFHZxJtr6LMhO3FXM0U3dUNem1I0GpyerpYGz+Mtf7tIOEbIXy6aKqzKq8BF0ECpkMUkftNwE1+3/musbT1vab2BfO9qC2jXcdvZ0l4vJnlI5T3claRMMnK/TH+V5cfkVFdvVUhDp+z0x/IHl/amcwqlswfqvk5usz8uMdlVZZe17/XOiM7Y2QBsb1L/krW968N9GC/45+sfGR/gcf/Ez/um2H7Y32j+3jv7xdWf3+It2u3WEX75p5+0u+hdRzAu6eKhXdh4zVApcezPH6A4SZ4O2MVaKiHX9Yoytp6WsalAyvuJjhMqultNaZ6goOJYpFw1dEKOeljfu0qNiMcJ1fLLAgeOwDRLZgmQXlHiY1aPpmfAwvDpA9TUbvIrpjCgUz9GqLNoWOLguKw/PlxeTDn2bT4rx9Ot/7W53/9J5uPWQvv15IDF3e1yVBzZVYYJq0c1EGBfH/nUxf8luoBZDhRzgnT4S/7pgYuL7g/xmw6lQzmkF7b/5DiPBFpWowq8EoX1RnpXX86z1fz+6zk4LNBgPcaocbMq54Wh1B0gXykxTfR1dMUtMDbG4poucypzIyUc6zGEdSjn5Tu+4vuL4qKpSGGbQJuzW9z3fEvS+PYL/jJa1few7YUx6QiXcZDYXV3esCrsNA8LO/B0LDIit/9dqtkQ1NxFIB5c09kWWbCs2QdYuUGptAV274AM+oHOJ1oppA82KNvIa04J2khjRSdgMa8tNcxumSWiVMkTTQ5uC1vJ1ohb0yoIe4+vdxGv8MN5UOmhVM9YTtUZiEoXgQrV27eYK5twwCmnonbB9gT01fqh07FxNhHf3tsw+/1VNWv9SEd7AQrKt+5hI+1+Vn86vcTL/I3eS23/YpebuSMeLhC/F9JJ0X+Mm6sdBKaet6WUb5ZtHPcigs5wb6uEerxaT1ZRoDTLgKnUtJCu2LDe0oGQb5tlZm8dBoVhknuBAtNCBnFTDi3kLDlMn9iyMxqR4b0/gfxJnh25aKaIEXlXNzyXqkN69+oF8v5rSaUkUf8XpaTlc8h4r5rczBPugOLUCMu0NJ7h57DN90drGcb1GUrvhBbqToljCeO1khMXz77H0xkcjL0jgx28nenQezmafxmVfzB8ZBpUhmMcgJi7hlB1bY5D6nhWY6LiNHmkUb2OT4SzYgMtE5kIBqq0bm/bOlU6XS/odpeOiOp+MT7rVefHoy68o7UV1Jv6ufP6QtnKt3dEKDqHS8M0dmVtoWCrL+UUxxFDcdHZhgGco3PbVfWt3+WsrpBbMmP+JEMGwji/4wTf0AIoKB1UOSncZ1P8uF3SviZc8pYyvi+Kk15oePURs8eVg6M4acgh0JzPdo6U940rmecSvjdfx+Kwj40wxwnhla9+C5f05M4cffFxi4l81+JaryAqFtuL+3ElML1XVjnY7lcCYXMjZoX6YhZaEE20OnWtHz2Cc0G2MhHssFmcrkqwC91udUC6xGy11Umvx8PsrVSU4XsSO2hBdjmZYFWAXk35ZDYs5auiN3ogWLD0H0fj1K4df6q24Qcr8j6fPxFiCuCo+yjcGgxovEjp07PY/aBMpLuYggvmnT+npZBk8fEYPz/Dhxzrj8ulIyPgPbIbNvpFv4OP724//gtKe6TNvA01ddl1ytgGCYiEgsLiUWEejaBTxnOR6H5YYYSMcTanZ93e20/0LuvhxIYkfByP0ccmPTQ/piLeYYbS5loH9CgIfSpCjGXv0cGIGYmSvPAK5ATZdkP+cxBdijyMsS21bEILCHXi6DByBxxc+ZSL+NdtpocaXKlFCx5x42GHNFLk3z+biBQOL/GoGhyVdDHL2gOxwZCILMIxMOCrxkvaEt8VScCCNL3MBsql+4DyebxVeDDtp4W7X9u9Otp5eP9t6evPMpxlSmt0v25pmiGlYXJMfYYZR63r3S8zyVZszjDTxyOYchTmVcMRrMN9CNFMcnW6/j6Pe7/u57vdxrrdg+idqdiGSEa7PjINCwhzBD4PhBk/wHSGywxuQllDp6X4+PuaAMW3fjC8Qm3zr6YMKGv2Q8rcRSpHU2VLEUQ8fSyY1cxMvQToXLQgUQFNjYns20mq0lgeYwb015an+bnner87Hp8sW38z3mSDp+Xh6Outk9HZ3x9D6AT4Rs6pFcUaUxKq7d88Pf+jjeROX9cGL9/vvDvtvnr/e48As4yGHvyqspZcekg/pdkLiVUZoBApn7lvI6W0NSROtWg7fwHR67JlgQqwuTlA/eBp3FC3OMFk3e82hLablGUMpBMgQQ39pQ8nFsoyMW72J0U4YBQXdPykxSIXbPcfmkzPjqErilroXXU/CeiJw1EwlSQZT7Jos4tJPeVgLwz+A+OiclfdsI7wawlRFkqn7aTIGzfFZt7OnMgxP1faTKzCCBPlGSa+p1B7lMNj79a7Sjy84a7BgzAhSWUwGx6IDoBY9kxY92802aYW7EhONMp21RUXVceov3KPbmh50MTwjs0MdDKpZEbmnpqfQATqj5I7+PXdlw+PnFUIaAHWKb+2LYkonHab0NzPE6cBbxVOBFoZdGHgL66WoKMRKMxTlOC78y+ZtZsRcBkez9eRuzi0VMn378H9bYkikiXtRqcQI8+D4FjazE2ZQK/wV/KZbmNbwvBx+IpfLycXuxnwxviyW5YYY5oeWcxv2mKpQrSjOsjhAziz/WgEX8NdQet3kGRHeSPcID4d2da6f7rZ2u91u28oEAc6Rq0cFE1fiX0kiQOyuLoXdikBIMfOVAMglwKrxI3dFRVWR9OBNPKgL0DW52KqjdsK0YWYF4FCjQepUKyw24cVSLlBxYi37dtRTIZGUcFXU7v7HH3/cfO7v+QiF7lscap1JkSLpVyNiLZSaOrkQ6lcUA9G8ltG8Z8nOTc+9e/fR8nixHK6WHNxA1A0MiKghnbuQDHahG8HzMLEK1oE2CvkiHEpf3iN+YV/n11hmBjKrQ/MiORWhgW442ny1plZDgDUSU1Q+j8AoGA1tR7BraE7GTAuBdKglpvzxsMdDfo9lYfzsNo9DTqlgg4MqpM51qSEVpJ0jFN6taTEVJl7dpWBIBWlH5aTkNq9Ly6mwaDpG3Fo0poLU5P1za2pKBakvZqvp8tbUlApSn8Op+fZOYipILEBKtySWVJB+NdUc69K7VJhjMbnbZPYhZf6HGBodlAuE5nk+KubL3+ZfxgX+vh8HacHNlFaGqBawQZGDMIdldqs1Aro4ByrfzXce/Wd3G/63A9wVzYx2/7z9521cnnzgtKghgr1BjwlGLwzWwtALMxJ48E/4gvxL+AYXv9o4oysFMAFpezRByw+88ZqjsF6AMDAD7npp8Pr4rtV3CsOC1KGW8KRHtzuZyCJH+YNKTIxbJAzMF63LREAg/6HYA53s0kHaSI815oCJByQsDHak1oOqTWZ/7CapkdHceVX1BC5A1/f7PJOtYEKjmQyBzD93xEjYu6rOQGyBGeIsdK+KcwIN+IEf3QvkCYpU0RdrzJb87fDdeF/d7aINX81FDcazkVa9N0U0bNKkxkp8w3xjW+0uDkPQSoP3MlnNv1s/tL9mIGXITqF06COW2T0dno2TKyQYhJPxdATyIPQIYXNbbql0/OKwCAZR+V0ECZauSENxhdraeDRCWOH35emd+w+M9XOIiA0K+9xGHRbi1/zoM3JxS0kW/UH75vsbD301G34ql54gFN4HqEAJo15gRKWCeYmT0WetozAP7P+7BYZbRQEKtRxl9vLNgYM3hcYXVVkHWAxAmghtpS/lo9lwre7J7Kwv0nfLIBalw0DRAQ4LJlaQvlGV+usd7zZV5Rsl9AR8qlJICSVgMvr27wuiXTvUFu4BJ6uxEPeay/DTaxqCVg+93PFaXB00IVChEhBx5P13l1/p9JUR2uX41AmcvkXAdnS2T4uL8eSG/YmZkrrPvwPmtHeYgHlk0vLlmCIbIMTCarK4jq/uhYyiWlyqlMNFJ/kCrc2OacetHghmSiNADtmEtXbhMX16DEPNoRQyhpIeLjG6EH1vbcORpoBNfwElz8xRq2bmFpbch/nCZWRunMSO6m/lzcmsWIz2p8CQFqv5cl0xC0bURo21X5+KG/Yj2zj3Mji9YKqRsghbHqlH/JZ7DnXevLv5nTcHYnVDKhvBR5hfIeVGLNEujyPaGYhbkBtKemdoyIplo1xMOc/jPXxYLpYCE1ZfkPoyD+4C9WnMLidRxS63V4l9Km8aK5N3YV3y8LaqNO/xvYjXQE1+bLs6pWajjPbH2/spRVXVpI8JxqekdEBvK0l+a/NNCaJk6rsY0FTAuoXDWVHwsVhE6E47aUpL8J1uxy/GS+Q+n0/V0WYt5bgdFwsKB98LIXSGMDRLJwjDuvq0a+36Dawmt7j2v0PrtT9iSc6xYO0NWkSmRBRK1F1SyO8ZIShIBooC/ooexXsmyeXurR+UCn0bMFRnNQNpRx7vtsKd3Ih7vk3dcHibGX007s0JeUIk3gJzk+YpeF2Op+flZPRbSehCyglIaBEt4C6H9GndJgxLaqxUq/NifjG/WkfwdGt9DeR8UcJ+jPaR2VV5IgyEIuVmk/FJeclg7TgPva2tq6ur7ikW3J0tzrZCDe2vPTBQcf3yElkWXpHzt3DUKJHmYARnjsLqT75m+8bvliGRl4yEr+0KgMr+y703h0ebj3rHbcT26D4J+ch9rvJxVqHL4BJGiO+7RoSc9fzdPgpj290vg0zaBiCpcG/iLgkHi1iCT+XqnKJggGpKFKkZdeH7/Vddsg0jg0kQuGHiELNgH9glOrUjzslkNfzUtf3Ov317ePhqr//ih/1XL3OBIZbzoMOfbhKgQfwfwcbR2vjx+fs3+2++72XPV8vZJrRqxkh/zrcdoy8y/ADR3OPux+lGO12We9LipAyIUinE+PKc4LDEq6sdlKNjWC7x5qLUwNKEAB6ezlGf+llnchYXumToPV/M8MqD5AbWEdkMn30ol1aTODI8abUQWw/Pk7V+hUfUw9liWoxmtyxfsqteIdDT+c2c7EtupsNzaNBspcI5mjicFsPyBI5p3ewDiJTo5tn9XVbukhtJneu4X55j+2fjGRwTvXuLoKPSLmELobP8C33pWZrmc9JNva4u3qLIcLnia4xS2Gq8E8vZxG8aRooPetDdf/sK/zjvubaTSkzwq73pGdR+y9ypChWPbd/PZgikCVkzzusNoe6s5Ar55RmVyKaoVGB5vewCe8dgTzJ76A9nWM9zOGyNgQSdfY3ih+qGzpeKsGTwIqXKcmzti2KI16Z51xT0qlxWEnYAUVMx9sCYeBhGMiYznz5eSk1u+tiSBRBWheAVCMSLQ+qLkngDuwiz2uUfIjT3+9jWfj+UmiW98jWNr8SP4aCLeWL7foktj6/Q0IUid/ZoaHBB9vUUUSfFNUncGr5CalsnMCAd3H1JhjO85NJxUkNRopPVt09NzGy2y2x2PptNnCRHT97Bk3TGMZ5FpwiVxOkh9dCGNeIS+1TkrinNiOsmSU2Ul+LwhvOAMHX38Bx7uCC8rlZenHJk1bw6Xy0RJyLvRMXN5uZcUDDQ466u+gNE4HT8RQ/HLak0KMoPd71xzDwOX7xrGdYhlWEgGGgjctoUF1GPfCkJJpfO5dHW4l4advJyXEJ5fxANjajwroLTVcSEre7RQAr6ywOKFxe99QJ+yFvbNlvUte9JWXHnrr1lidwoox5mAxRbBzUEpYyA+kh6hRryiqRXtzzQmQ9D/2K4ZzMD46palVUPBSkWrihGNex98/G8nIyn+vPg4FXXNAGF4zOqx29h0qc2iEjDlffOQlZPho2qAdBefg5jZw2P0aDAkN/w38lsWEximjOu3kznaFBLKfHOmb7wz5gzkm32htzai2FHpV29mE0xSCRdwvYLhNHNWiclqrSkae2NkLjJBke8E9jYAQ2g48YG+hGMwJHjBGtA0R71F+2YbgIWF2pF4Iiaa6gAF26At1E2EVIXf0+avP3fRcVktCt2pqUEN2v1Y6Tp6DqpPHKMFb6O1rST4A0/6vKflvw62P9+/82hC0ANzTnthQqRmkAUqyKjtUnawv23v/XMy1rH8azhzPuZ49+NmnXr4Df3kvC/F9M78yBzEj6TvHQQ5qMlSDtdtNqmha5U/LnrW4tFfkmhjmTMLCu2gvQpOZ78RLrSvIe3rD3BVjFjSb7BXn/wS1RAV+IER5oPlygYLMv1zffEPRLeqLu4aQsyhoLCK7nlTYD68uFKDva14ihCRXSTHWWtKXpTjY6vA0nWmJS/cSdCYzhgPQOg5n+uKnYXL6XkTF6auFwcXowFY/S4Hl+sLGKiN87916pckQPHdMrWtSGy4zJDJcEy2/m6oSRxcq0kWMEm49QiDw/3UbyVGfTcVoo5HrVl5Wb8uuMM7Xkl1C4T6ttdcVmM2fKKihiXv2rTc+MYbHssj5HBMN4sxHuJPO6Oqz7vVn1+MmrNYuJr2Ou02q7N/1t3Oh60vphgRF61YvveyoVgKDCP3MuFTa4pyaOy0W7+OL5xwB0VnkfOru7WKeG7jx+yKdEfd+bVtQaK9obWmJzDHecGhu2b3vacvFF3i3e37NWxRncsPXNQLLGG7zuxYaXwF1cl4yjOYGEJSDMuP6WBO3bFt90ETaWu/UEi/IIXqCyM9+GKdPIKP29QJyMYOnQIaO0nf23W0wp/qcsMkcbj23/Oylv3UPLOl/Yoqj9Q+osea/hxQx0vz1cnCPSw9U/gMdV5UZxtnVDZnzkmkkmPqit/djGK8k6Wpl+nxxnPsGV3nTa/QDif+63dm9/Mx3r+RpEBf29J4q3P44nSMdL2jWdh36XE2kmOO/ADvHonp71QfEbtFmIMcJnoNdkn0u/jC3NS1wSohjUJXBlGbNBjZd8fyFXBkm5RK1hkSR5AeovihrCrCSc4khJOVmdrGIJrJWlukEVP+ggsgoanvgtdDtCodgdxN+4Ocpj83OVi6s7lyHXQ/8nThQ6aHjCaN4Bw9H+T+YOp0S/Y1fI2fXnIZPFpwWkIYCS8JO7YS9dOqMzrRGYS9akMTMyO78i7EDmpcEY+2rQ77PtqY1U0GMmkzOFqGk0zBftEGevEgXv3xPoEDTdJkKF0+RD2kZ632+SBydFmDx6HhofyTsyX8l44ZvpW5gRfh9Mj9YlJCVaamJKcrq7zXjCX0ia6f8JW+XtSeSU6f3gXXMPI27MCC4zU/JqTqQRzBvTCb1ndBi+tUk/e6bUwvA1vmrVWOcjA+/DUKu9VToH34XlG87MqrBdo3YJ3eqr2aYJjtqRleSPvBVKNvON9F95ZiUDeyb6EI2c3Vn1LKNRmCXfu/fJHh0h5wWHaf4MN+x+Ek0nnXPTGZYsQWmEYgM0wsn2RAExM5tMSvSY8UoMgzckFR3BUHUj8ZrlUGQwcPNVAnjC4vRYeRUjSEjB7j4I8+QIYgpOyXRYLhq8bcCAoapDLOGgoj1yPKFY7eee4F115EaBpLV1AV9NBvBQlvDgK7VgQGBffUxOCqLveogpYG1xMbzLC3J6dmt1ojtyG3Fn/FruVExPUmFYIsa6FYkQJf+Yt/LmJVKxuTCqMesV+59B53ojV3DZflD1FO7tug1R+vZsfFZv/Ps7bgumvm5febDGt4LUofVFc6N4GAfh521FJR1pQR2Dep81foWlcW3/v1kMHCW5mX27UAkBRLs079PqcR/zX+b5KG8dVMZmuLlrtXuwNlcirXVRHc6Je9cIUChev3m7eVjhit3CObI7j8EIxfHfP7KblJcg++YOqK34R4WiLvxYvTLNw6SpQkvj1+orw9LMTVjAYj7ZwmRJx49Up35ySsxrSOI+8oyVneMHwPrd5zTGNewS6qkQ11NLffdj2KJoO6ndoMfYG2K0BSSdYkRBR5KaJxQjW7pu37z+8oQf0DcZp0cdD9a4E9vDvlxd45DBOTN35qjpnU9YXEiQd3VezjUSvEsikZDJsuCcVJKzSNJ3H2ucSVKZLsn4UR8HW4rLNCwUaSUlr1oa23RLqHdJSne/pJ9fpItVyFLxET1yJNDLQBR4wIKo+Qx3v8sFGYaP4g16DhOnjhU+6etuBj3/EUtquk7L8m5qHkz9EoOANxL9rymGrHygpChjEJozhSWw+WYFgVEWN47NZ+Iw1vfyQnB69XphgGAiXslC1gd5jKVgIw7yfAGf9VGV0mGMwAk69xHgYU6ChRNgdGDoWN0PSXyiFCHKLB5c+CaPlYEl+bSAFDCzmgbwzBDKoRbzhVvbUoU6EfYnqIssP8XZ6AytoD9BatoY7KliG4xGzJA4jVOFS18jBwYFoAB07oRc1bw3fh4FQTL3l7Hzg2s3qQAS5GRNcUBdlbQT02SbC2oatHF6ylqyysdHkgw6Q7u4ckc6Gk9VIY/ZgxKAFArsg5pRFlVCyrbUOJ8y1TqyUfNP+m9EkT4CaryiamPNYx0AycdPQThl24bMwviP6ANaq1fXRU6INTeV4Dr9pjhIpxejSC2ztiPT5OR8OEUizqmNsmHLYnC87AAKm6REAHET2WI5mK0GsIJu82xslx8ae3nsEwo9bb0LBQlIG74O4WgA2TLEapGdqreOVFGziE2gx6rovoGAx1LMS1icxsw9QDWsn5tNRxyZGDk0hci4+4QXJvMW4eLs579ZdkMCq1Sk9wYvyT5GbHjScPTBOR8T7fyxZzpyWOEQaf4eiSFMIIEzA9p0c+hJejCPtMkWdi+ISaYMTd19ylXCEUg1HLMQdDGHL8Qm8vaxlURvQXTvuFB0wgTygNpLBlBA65RL4fn5rhldvX/ztu/1XexwYRfpRVyugXOZmtfuO4nWwVxYUuOu8GON8PFogOszICkGAGMh+8dtVdUMm+91u3S9N5m5FQO/aKhGHSW7IcKOYjC/LPyXzMib+pCznLV2d9cYhqoe27E+72eO0a5QJwFqbbWrjdDKefvIPk4Xw7IMIrBV+rmItuOZJ+lasa2etTevaLbygLsGNJUqEDVwDRw+OHEH/BgZFqLCGfzGsuN9rQwg/Y/5CrmLJOAe+OCfCo42uLYdQPVQ4JIfQUC9Nt34eAbu1YVUN0hvN38seLPCGnuoI1H8sOhEqMAtRDLBVmwbTK064pmM0t1yuSMf8qx13vytIA+697T+LarUh64YGBPwrzOmkt8xKMimvHWexx0loI+AHTVPqTLqaOu8KFuOBuxSGmoCmYuROgIRn49WjatZPHufO0E2ijpSGupmWNDwuEMNq6qVSlSGZmrRzkezfVQvi4CchOI/LZdxUm6jBHUBuyS8fOBNzuhBEMWc1x1gS+O1B1Qam+3EKDUtyq1a/L5es6PVPeAPS/gh1wFX7iiRIjq+rNjhk67K1phbpjirE6UfkQhNU8sN4mb1YLiabL3BfhlFYQh/IC8EOlBP2gkKMSNEgzLiNMKz95IzggtDfALK/wO/lgk1ozcaU3mTI60IKSNgDePeggJ9JPySfi/sLOzp3LQFp7baXx2ZfSYS/rld4++7jdh6N0iE2wFBdJ3sNZ+nFTS1QBzmt+jw1KGkvkPuk5nXoCd3JcqJ4EPX4yjDaGYGxLPtQkbVmXrf928Fy7li1ufXmmPzA6nd1kMgof1PcYshmFZWMeLRTdyTRHHFAXkTqWhLisz9ko4zuaPMMjfMZaYcgdOn3cjZDs4fI9CBCRElQYs/UEXalG2SOLmBHRXlBsif5NASvfCX00x17dhPVu5z3e9l+RTihs1NHwTCljPmDvcxxMvKwKhfsmnF3tdd6QWc6x7JOthsJP+49BVlyl9vZvOeCFs7bLsCekawmZRzglJ6TcTDNJWyVFAjO+j0wBHsrhhoW7E8lZ+fr0OeYZ/0EroggzR1tPukds7FRd34zIyyY+c0QzlpaKKXqbe4cp7LTwU2kQPwN2ahnR/iDAlCSYE2vfCdZWHf38zwHNenGxUutWgFVREC3OGAcnDFIlD31YZlaiFcaktJm9mWKUVqKEMqppWIq56JwcfbZYyY8XEoMZ1gwTBc6mTQ6io7TDGdhh9T3kH8+kzLTp4ioD7IO0meXO3REP2HEcsrtWV8wtG3LO0p8WEce0kYuHO1L8mvDaoDT9jkQ7MN+PUiApZzaxOE6x9Mbe23iaEZQSwR3VMMm0hrrATMr1ZW1fKtqW9kfArV1WKKz57JUT7HqN6Ft/WFQW9pMFlUdlqExD482EpDsq+LMStguUzdK+iWGhtf03t4MhH2tNcT2wq0T34rFMt2mQIEXsOzRY5euMHRUneWHqqpcdHJSpuTL+QR5Itpz49+lfqnwBbPEqlwuKTwD2nEC1RHG95gCK2AIh5bDAsSjaS3VAs1wF+EysL2vr0b2W4p06O5DwXQb3jFIT9NbjYi8m6+Wp3/O2V6Eu2ZmiVA/7a2MDqXXrewzQje30xg7I345BTBanZ6CiI+rjGJVo0cNZuB46nK56te7xEcHSZyjyhd+9lws8OxA1meJgI4oG1WrC746i5gONwpoYgvtbPCRD+W+QDXmsosYlef8iwNvGNhSkqJwFE14atKiKhH46E1SwmzBkO96+HNl+VvgRPFm2KgIFzNKvFrJ85qQltGkLsKR5ghx0jpTkLMX1wGVkA8YKcMFGdFI8mFx9f5pS7BlKMXQumI3001C+z8dD122rqWfcEbk/hb/JKdqVwipS9IyXWSrTye/wCi+8CqXmzp+GBZlQtNLYTayda04falFBopktTzDSQIOEYe6v+ZYede041OqYw5WRBmouKPjsDAT59xFJQ9HwnOY4LfoaumiFL4JvA4xPSWudEHe00PWN7n+zueTm/Q26xaNn7KEOZ4dZa6tWAzPWy5Lx45dTRp1tWkxCQM3UomEW03uNsgHvGmfzlbTUZdBb+eCBZv2MDPduqXyZMVvZp4RCcGXUHGMJyW7gBjfuREXRFmaLb7DdBuAjBvhcvG4GcYdseIDSsusE8MDTSaOLWAIYNcuT45+KX5HYQwlTBqx4ClrEgSq12+FLgQMRz48Hy+7wUKWUeUKUkM3wqmAXXznUSfb2CMUbzd2juHBKtqA1y/Ui8py+iBRqIfRFTiuYA1a7N81TfhQ0TERMswmCKTL2PdWMKBtpTmU+cZ7B1YsOSoeO3P3CjyZQIYFNF+O4Ol+kNUntcJNVLTC5DgW85uKDwVf0GmznAd5TmU1xnn0N+OV8zklWidmVk8FOd+FhqnkpFeL0FWbEFxNrVOeEocqHXB67TvQGvYcaL7ryS55PIpKN6Y5p7xYEDi7AX1Og6sk86xZkWzT0me9Ni9MCqv0MHJhYzSOcUUG6kQFFWlWYOLFLMaxchEMqM94B+9Yc7ywsIqwNzhIZkuwP82O8JoMiDQZG54BEVJtjcVpsDjyHTLx3Os6PvXSizN7OVY5HwvxKbRcAudeqaRc8LUyBb4nmXDIsBKdDBHhjXi5NJKMhI6k9YUXK3zXWpwhkgMh0Z+C7HRuOQlB1LvCBM9vvZzCDOTNbLmvcTbLEW0CRmHEYrz01cNIJgjkPSV1ZkHUKGIdJDQ7hh2ZChqLR1dakeFATUSAo2uBMQl0GrgLJPGxBNk0Mh5L2zVR4wL9FTl4TyCWhIY2lOqkFOXBJsae8zejr6I2X3DkEIT3GI+Y2lFUROdB2p5a4UUJ3uDR5oVOhiAySxwfSCcD+dnTo6hdxaeZOyvag6M5n95OrgzcBUV13bwpbob8TiQVhh8lfEVPfcfFM0/Esp9yCu7a1xnIe+GMGGesFJIuYaiQprrkt3CWoxhfFMfeMHknxYbNahkJYteIbHZULIcywlRCKoSDsqmhZRI7uWZN8anLhXqhq8V414uZTXu2+6iQtxuIfLfna27u5/KBUyL14VI8Pes8nnMoQUhSPyx9o05gbbr8js03XEItSpoSq750VLvSgYcPXc62RQUtl8X577SSpLTu4W2LidqGwgYKCbtZDb8imbALXChyrXXYECxg41UiGaMc1fId/3ryZuVMQOW/mqyRMiMa/T9JdLVhCgADPLncmj6mQTRFY7w8HYV1hQwnMH115S0U4gj1v8bTfxaPPo9OYYhRayNmqOghpt9ZdKt2f/olPaxIzP+kGpWE9/jaF7eiTvadeAW8opvI+OiPxsomeUsNbINMereB39umEZZMpf1uq7jsyhMddfkZZKJumiz0WzPQjyC5jITJIE80i/z87O3BtxkG0yKOS8Y7rhzfrHLZXwZbjq6g/9/zau3dxFOOnO7COxQ6Gu6u03qcplRz9fE/Teh81qh77KmyF0u0JAeTzZ8czDYWJxttlAVPk8ePU9EKdiWcaiAm+Y3rgFD1P4sf1IQBjsHZR6PuXROUs55wOuM3sZG8fqqb6bK4Nubu8cUYnnvKcOuCLnnyTqkIcc34y+frHpxx4DCAEShLGwWL03L7guSmd60ga5SXG0/OM/glnFUuJLE6sXWduHL7s+PT6TEcB2HUh6PDvFwsb9wkDWfxZaLDi2FnKdkwRlqm00qiBcBTZi0UFRaNZPP2rdUJVdlJcoppz6BqCsYEv/PEHe3p+eIkTxF5UJmSuktR96wWecPok3kqhYdCRXSz46mKDW0+8Kkx4egbac52oIQPxvLMHYO0xgrNpHNUrkFFm38ONGqVVY0yEBA08AD42Dv60Yqbv6tfOrpkDAX6oujAuyslCjw1LvKIcM2gSNLaQnKENLIRgRYlmhUKH8UwKvCvv2RLbRiY6CiXjIxZL0H4lKH70tnR4bOKZ5kBk8YbCD5q2DowjDWtAnXqc4wmsVzp+ZH3k6OlqWF6iLfv9gPFdHBIXDdZQRgQU4tYrJctHjp2T8iPyejbDJemktHiZG5Y4yFau9muGSvz6qdgcFzDeq7u6D3ZiOE9nU/C+sxRlFLmHZL5mHJztJ9EpAUab0nBQxDlFtJqzswJknn7LnP9Hhg7uFBtAzHt6DVza5citQVSGLleJlJY9M6rKSSJfxClhKfjKfnQY7J+X28b+32XzqhByEtTOL8Qjb4Cype2tFzfY7ve1QmwoQ6wO/ahwPQEO+jSR1wRtaO5W925hM+SCUftKxKbONkEWTF6gyQ76h2jmpZOM6mkdqk4NkH8QZv78OEiKR9Cot9NMcl2vLWA2rhZ1XyZrU6OV6CRYMTjaNfeft4qWZuVWBOr1yxgZvjKK4RJBEShFwEas5UnzsuLML4HxLr4ri+4+dOgo4KA4XPIPlazReHnfMWD5xS/I7ohA0Lre7GPjBlf0E+JnImSDap/8eIIfeEkutt9Vs2er87gDbkLnWaXs9loNssuijO8f0d3aIerTlslMKhZ9mcYdzTCQOuo5exTqSik5Li0qthp9bJcnMzQSfyb6zbUfVZeo2kiqdrJO5lU7YRkelFMi7OS7ptdd6BY3Kbg23iKZ7NFnuet1jcX1z6q+n1XBSq3R7PlJqmfy2pzWl5NYPlTfW7SjlaLkw/vvz1+6J60vukBq8hb3/wpWqI/b2zAwwh+/uf8p69+iZLVnkBhvaN/fPyYH//88WO3/cU3eZRD3m/o+424jse/SBJK8fPHKRYCT+OaU+k2bDpufRvGzY8qj6WMrwvsvsghOxt5yhwuyk2eRoT8Yz9WIZ0MSW8RztMXPD2u5vvZox6GGeC13mKvWuAOSF84L+xLTh7/aLcjkwWUVloz359bH+93H5pLzvvZY3QfLDnqAPnLZa0n7exsMVvNydmTSNEUcPTx6ONPH1vH7eDZ8cdfPmJoQVPwl52vegrQULHLPN1YZrOFu6fMCl0I5C2ctchDT5Jxx0w9/4CKso/L44cwS+PTn2Eh/kx2qz+jGP8zCN8/A3v9mVZ/++NJQ0aMqv0zHpl/Zln7Z/Goohym+f8J47Ja8O0PMNUcxjp3XLeFg01tHdN9DtoRQSeLSRCH+GdYXL1//Px1W2qHIlw7duHVgxb1mgNFtSt51/7m4+Kb//Xz1z9/vN8OWvTnXvY8G66q5exi/G+CsYACN2enm8hENnkA3S5B8ybjacjENi5dPTQN6w+r/gtUDYXIUHX8NZcQWpcskna28cqMKgYaR+SbxQ1H78bxzi0VLr75KH5Obi3h/SjedNGdG1EA0x42ndhkAaetinYl1023ZIirKkv75qL9jyPuzMeP37Rb0FNsZJ9KbVdt33V90talpo0YT2n9oAFrKUsOb85E5FGiFQOtdsQLsBEPHrS4DK0DaeFB9fPRP/KNj9PjL75pP/ym7RPBFLUryJY90HKcvEDuc+6Qnz99kD14Bsl++in75Ze80StAj26BaiOyJ6yZ/2qe6HRmj6y+kHan2TZK2tuSZqtdX9ibmkZ5VPbZEFGagApmeUJSSqdmp4VjN51J8tnpaUUOVXAo3g7TjQlYtWN/YJgSSLtdS4sKp2kfTthk3LHtR/jM9CtUP5CRARMruYAQ+IiD8xgpu/f+3MEktsOrUytkikrHNaEKm6DTG09kv0knxG9lXelbQWipW2RxIXo0dQJRKBAqzlhuVlRmGEvmF0FmV0TmKT/cz0vXvIti3lqU3VAfxW9DMUL20b5cMJEHx7/H8xZ7K0r3OlpyO5nZI6c6ftLxHYec5hc0vbGMI2ixKr7mMMW2bWyIOCdTZMkR+nCEA33EM3DMLh8sZAYpo4YG7XTcKF0m05SjE9WytTyRdwy1mQO/V+dEi0DvFXgZ9lJ4u7nI3WT+gJb84ogh8CFGYmR/FPRDigCBtUPa9cCkUVnUfCa35NyWmg3VRV2pJzeZppgj25sL9Y04ruWMWRXHdhm1lmTBlEztONVFF1Mm3dMvuiSDtXY45M8e62ij9Ww/LAUC0+lk/TU9OWa9BAFu5yCiNjitN3TKlurGxI3OTvs4+yJZXtNHe/kI7eVoy/0Cu7CmUTJ2IB9PymnrtixJgzhX1ulkVZ33sZuJOYhqE6orRn1/rZEa3s9FD6XYVtiNXTII0QF5Evvb1m958BM6Ad1l1oLGRltwcjzig3m0Vwe3d3Z0MPyFLkjXScMvqAwm2iGfa0hxg0cml8YtlO3P4gx4EBO+4NuATKGBH+Bul+AJroU4/1rQkY5dLblrLBKmJm+gK4IY4bFytXRRTJjjRiXjUc9b9/la28YGrrWW/fDFEKLvwr/zGf4zhH9OJp92+M8jUoqPMA3/oV1G6LZq1Qa3JlQ9y7bptNmiQlE4pGKZzxXk/8xW+cP1MxJmT6RN28JiBzlothXib6kKb8HsWzxF0iDZkpSMW6s5amT23r6qz6AndcydZPy6VmiQMJUSBs6W2PsaUeho57jBttaXJBHzyKdgghBLcnLkQ+PYNb1KdHI+oz7iLVlG0wgHtGpcw7qqzzOM284twzqfpSoc9lgNi9LjuhobiCs9GPcRSH5IRqrs1U9+vXjYE5ccrgZkWQyIxuqU8TKv18qFwVF0zNbmk7K4VEjAmZ4MNzOKNcE1Qa3x0DYO2uYdBm2YGDRcCzRsBHMlE+vUFePTLejuFvHOLWDVW8vFzRba8DZXlTosCRfYrLfQpK3Pu2vhox47xvDCjBuJa34L026xZuZXNvBRrYFcP5B8j/WzeOU23SSdTQEVk2pn0zeDNDl8hGng3tLR2lwJV7A14UJbo59ZVSvUqGT5g2cJScxyg159OdfSk4wQUQu2pi5IYPM+1iDfftPeZA7ktyx9V0hqClkCsKdyMxq0UbsRSa4o3iJj6YW3PC+qGEknOsbIQSAQd4xI5fvtwn6bt0e9wE6R1LHwtmZUgyJ4RSJJJ6PtE5Ub29Dxjx9BJAeBNs/gv4d2eFxe4lvuVM7HvO4pJIJZW/CpI0bJQNg0qo1Q1a6XR/DVCAedpCAwPpWcKaRxaL4Kl1A7jRSf1ucYaY6y8bkbJ6pqobjWjiVaV4Hf1+hA0uPyjzZ3jpGQpiEEflA3s09GJuuzQqHlD05KtKGzGQ7DU5LRGsfKDlMoOlF36Lyc7GLcP3qFHbFd/EiTDN10b1Fm1O9Hvc3Hx3Wu0ljSYn1ZT46bR68+c5TTjpeYcphr9FbrQdVpt1FTSdAUVAIVGx0mPCvAQrq0CfIEA33vhGkjlqMmQKh+HQ8jz59ouofnq+mnUA1Bj462jwk450+583Oiu3RoPjWeE+2Y+XWpWOEUJPScwzSVTzkBR9vN8+iIg6PHi7kVbJIx64vG/Auexu5EaBgyqOgI3AFGsVF5qrMrA0nQtM7wMn3drPrH70tEdeX7aWtMxEpNVmIilykwHCbl+PtsRd7deLNViGtkkVkDL+PnIyWgVRU5LXqoYirLWZ1zAyipu93GStBvhREuoQjrtULZjatK1vKuKr6MdjfoLNuniluVunVF3sWJ63AkGT/DawxNFTl2VxOR/YIORl9ewxoKTSE5s/MDSeblt5D1cO/1u1fPD/f6754f/tDWbo1xH22NEaSKDD07mbPfRgNjSiBGR1rAAQ4fOaNYVbJzaEu2Qt9jfKJfAhZrQ1uiWUSRhFNzdR9Rk5BzwZf68ZFr6dXSB4686sOrOYlpbiACGbqdwVRD/zZ+Cn49sL/y/5XLr1sbKb1RxwLqYc0PJdWiWIGzpmyy6LpLySJlxEX5ioqTGWzyBNjhHbORt3nXbORyjkKEC9YGW6xWnL3cPfSlchbdaA1ZM3zSl50spvpd6/7Vvjdkv5M7lnY3BVutyshVpn2PHQR+dRdCjwbltJfj8gqJvq++Ic4O3FufvCyHM+KhPWF1IYIGMU2JAhNCPmjEb2SGQ4mSgcYkJ+V5cTmGfJPxJz6KmhCIGRxGZVIFFmLmN4SMrkzg3Aose0JeH9bWKFUGBuflS90Zhg7H2lzBqLAgMxUYBEKyoF5mV1j2NIJxlm08qM8C4gchzjmWBGF2RNjYZG0jtliVZKWdg8Br3pfVfDatmDO3CbAkNoDD4VZu1cn+6+DtG7YKRqDof1aMPs49HRbVUh043E7i5ALX3RZSUdtMwF89WV0tinnFCcw5AoUK3LQXDduzfmQUmE5raWPGaZgwZ+xkNAyd7CX8+3p8PZ6mnLKBdvUarcFOM0qpmx9XUk+m06kiiF0cUkSs6SYox0qCXRLU7GeUWvd6Mum52NrxUMb/nuWAbkKV1xFVp5gEvrgzj/vcUprY1ueWU2NXvzfuFCl2kOCW7Bn9PTse/WpwrN8fGCuQlghLqrtFZ5gtHLNqKz++5+UhMpUkicipWzQMhNOl7pN40iFswraL/nFOHtofKgpP4IGLccjRgoc4JRnszYlHZYKShvJ6lbXKLmR+sv2EuNX8fIEAuvI0fwM79ne0Y7fvYdb+i7cvqakIuzoZn8AmzfzOrVmf6ujJzp9RwtjYzy9ouynms+UGBcX47kX26PGjJ0HiR5z43YJA7em6MHvPkPyjjTDlXyjl4WyWvcZ4PZgK3dTCVI/pZLohL7MfSgKZ/25cTkZVhnlfYYSHIM+XO5znTbkEQf4TIu+fgxyv2M2+NX3KdHD4/PDDQf/V/hsaEjICaH2C6X0wygRaAn5dtuscyn9wM+BUKAz6tjh4QJpD3Io1XIgxy4X5JtwMvOqGgwpFJ3h7CT/HI4ET+Cu9g2nZe//+7Xsgw+/3+kpx2FPYTx48cE4kDx6QH+ODSn0YiRo7FBkBxpDSPP3Ty7cvDv/+bg8a+/pV9u7Dt6/2X2Qbm1tb+3uH321tvTx8yW8edbe3tvbebDzjbOgu9cwNxNNzmI5nwbg8XY6Xk/IZe6BkP/1UCpjfL7883eJXYfJqeYOQDzfzcncDdSdbw6raeBYNNcXg/gkju6KKhjSjEyz+flmWX8PgTZebHFS3l1XFtNqs4BR4+vUvUSkns9FNspTT09Ov4e2C0GV35tcgq+BR5/5oNPo6OenzYoTmS5D4y/n117AiF2fjqfyKa4XDRnPTGyr1FdRLfLpFQ2YmYSuchafYz2iUz3fSMwLPw4TzZwezxeKmI5G4iGCAPj+8fwUzu3z200+ExCQvuqvFpE0Tu4xnDIQeImyQ8Yh2e0+35nFVi/IZtgabi4Xg7yDFgwewnzMnJWzSroNBiLf1p+ePnu25l9CtR3F7pDZqvSmo3VBxrPuuNWW5KIYlzmqqKYfu5ZqmmDLu0IinW35WoVBahZCiIbrj05Nn9hlkfgabLF5hMVTyFFUxbBnuuU43e4eRxxFIcaSBrQRexYesYrije9w4PJM8yPokP/X7sk0ZNBEnH+PJQSPXELCIsPMB4ZpgRDfSzhDbQoaHKhMsTeiM4GA4rvOSxXYptphcFTcovZ+WfBrBhj6UyFkPHcODkloYABGBxgu+BxAEZoe53u7e08p2M9tEt/3esV+8j2LHlhbvkMGdsX1YGm3fuue6QFy1hmObJI1rlJxLUq1y4cu6iKDCVYMgwfDu3Xvs5JECXQARbH86RiFw/G8KZoaiBVpVc9xc0bqVhPX1rYt4BrSEhzUYetT5sWE5xkgpR20o8NsXvWy7+1X3CYOy0XPqKck89yA/HhU4RoOJ9QC/ns/nB1g9RYKlTl6OF8sVtF0iu/GdKVRKWju3y3mb2y5mq4XjE5pGJ65u9a8J7MyDAdDeki/SOE2VDThVX1J07/G1Tp/X03uptJX7wnIyDpBFQKrjPsHv9vs56W4axAaX44tsA4vZAIlD6gapoy040TAE9xqL58U+m4MkyWc654vZH07GffrV0pAx1lUR35Yukr3FbSd3SoZHPy8nNvSGQurnH6eylTyo8M7pQYZleOWfIqXvSIWI8zVfdiU4QC8ob7ZCLH2mKC3NxBFIlLodaK9CNyPTrY03syASGFAFYmvOoF8G4E9R27B0BiKDpbVYooNsrkaFFrLbIvPwVGEoIRN60E+NujT4kBKoWsWBoNBVqDik1Yfv83aHYlBpzyS4I76ixYNfugu8qWvlxznCYdsnPXtxEFTHqSSMYi/vaFgpKlhe8y1BfnSs7tMMjAavGbvvpQE1JwcmhqWf0pxi2jieSc2VGe9VKBqTv3/qon4k9tzDj3erHjI0vHennqdvbSVaCR2WSHLHovv4s2qdzsXP+k4WcbYkRYcLg9zIbssDwxapCUdrQ4V4a9Qvg/p1x367PufGh2khUGgUKEBmhQafg4Ok29ayDuCd7BDEavnqo4+071IrcYKoWlzxWLVOjnTN04bEM0PSkEBjIW0gbe8SbWPSCAkvCDvTwgQaAXSXSLfTXqcS5+xHmA3PfhSIgJUyKw46dbRtLCx9tBfP+jDqC7CHFkUTqcVbxD5VUWhwF0IRX/KPesxEGgyO6GM0dxg5Ed/Qt1r4RBd05352+MNetvfm5b3/B1BLAQIeAwoAAAAAAFmDv0gAAAAAAAAAAAAAAAAIABgAAAAAAAAAEAD9QQAAAABzdWNjZXNzL1VUBQADmgFOV3V4CwABBOgDAAAE6AMAAFBLAQIeAxQAAAAIAFmDv0hEQj9IlQEAANoDAAAVABgAAAAAAAEAAAD9gUIAAABzdWNjZXNzL2Z1bl9zZXJ2ZXIucHlVVAUAA5oBTld1eAsAAQToAwAABOgDAABQSwECHgMUAAAACABZg79Im6KLKcetAACQagIAEQAYAAAAAAABAAAAtIEmAgAAc3VjY2Vzcy9fX19fX18ucHlVVAUAA5oBTld1eAsAAQToAwAABOgDAABQSwUGAAAAAAMAAwAAAQAAOLAAAAAA'
p11
sa(dp12
g2
S'NAME:Matthew Cundari - Your IDS has alerted on some weird traffic. Find the encoded traffic that was sent. *Data is a base64 encoded pcap.'
p13
sg4
S'25D{N3Ver_Gonna_G1V3_Up_hidIng}'
p14
sg6
S'1MOyoQIABAAAAAAAAAAAAP//AAABAAAAkV+qWKxoCgC6AAAAugAAAABQVucIlgAMKZDmTggARQAArAABAABABrV0wKjThMCocAEAFAl6AAAAAAAAAABQAiAAeGIAAFlvdSB3b3VsZG4ndCBnZXQgdGhpcyBmcm9tIGFueSBvdGhlciBndXkDAwMDAwMDAwMDAwMDAwMDAwMDAwMDAwMDAwMDAwMDAwMDAwMDAwMDAwMDAwMDAwMDAwMDAwMDAwMDAwMDAwMDAwMDAwMDAwMDAwMDAwMDAwMDAwMDAwMDAwMDA5JfqljJlQMApQAAAKUAAAAAUFbnCJYADCmQ5k4IAEUAAJcAAQAAQAa1icCo04TAqHABABQJgwAAAAAAAAAAUAIgAJwgAABOZXZlciBnb25uYSBzYXkgZ29vZGJ5ZQEBAQEBAQEBAQEBAQEBAQEBAQEBAQEBAQEBAQEBAQEBAQEBAQEBAQEBAQEBAQEBAQEBAQEBAQEBAQEBAQEBAQEBAQEBAQEBAQEBAQEBAQEBAQEBAQEBAQGSX6pY2WgMAMIAAADCAAAAAFBW5wiWAAwpkOZOCABFAAC0AAEAAEAGtWzAqNOEwKhwAQAUCS0AAAAAAAAAAFACIAAz0QAASW5zaWRlLCB3ZSBib3RoIGtub3cgd2hhdCdzIGJlZW4gZ29pbmcgb24BAQEBAQEBAQEBAQEBAQEBAQEBAQEBAQEBAQEBAQEBAQEBAQEBAQEBAQEBAQEBAQEBAQEBAQEBAQEBAQEBAQEBAQEBAQEBAQEBAQEBAQEBAQEBAQEBAQEBAQEBAQEBAQEBAQGTX6pYKnYDAHkAAAB5AAAAAFBW5wiWAAwpkOZOCABFAABrAAEAAEAGtbXAqNOEwKhwAQAUCCwAAAAAAAAAAFACIAAyWgAATmV2ZXIgZ29ubmEgdGVsbCBhIGxpZSBhbmQgaHVydCB5b3UBAQEBAQEBAQEBAQEBAQEBAQEBAQEBAQEBAQEBAQEBAZRfqlhFtgYAtQAAALUAAAAAUFbnCJYADCmQ5k4IAEUAAKcAAQAAQAa1ecCo04TAqHABABQIPgAAAAAAAAAAUAIgAHW4AABHb3R0YSBtYWtlIHlvdSB1bmRlcnN0YW5kAwMDAwMDAwMDAwMDAwMDAwMDAwMDAwMDAwMDAwMDAwMDAwMDAwMDAwMDAwMDAwMDAwMDAwMDAwMDAwMDAwMDAwMDAwMDAwMDAwMDAwMDAwMDAwMDAwMDAwMDAwMDAwMDAwMDAwMDll+qWJUUBQDQAAAA0AAAAABQVucIlgAMKZDmTggARQAAwgABAABABrVewKjThMCocAEAFAjpAAAAAAAAAABQAiAAqe4AAFdlJ3ZlIGtub3duIGVhY2ggb3RoZXIgZm9yIHNvIGxvbmcFBQUFBQUFBQUFBQUFBQUFBQUFBQUFBQUFBQUFBQUFBQUFBQUFBQUFBQUFBQUFBQUFBQUFBQUFBQUFBQUFBQUFBQUFBQUFBQUFBQUFBQUFBQUFBQUFBQUFBQUFBQUFBQUFBQUFBQUFBQUFBQUFBQUFBQUFBQUFBQWXX6pYM+kLAJQAAACUAAAAAFBW5wiWAAwpkOZOCABFAACGAAEAAEAGtZrAqNOEwKhwAQAUB/UAAAAAAAAAAFACIAD2wAAAWW91J3JlIHRvbyBzaHkgdG8gc2F5IGl0BAQEBAQEBAQEBAQEBAQEBAQEBAQEBAQEBAQEBAQEBAQEBAQEBAQEBAQEBAQEBAQEBAQEBAQEBAQEBAQEBAQEBAQEBAQEBJhfqlhNcwIAVwAAAFcAAAAAUFbnCJYADCmQ5k4IAEUAAEkAAQAAQAa118Co04TAqHABABQJGAAAAAAAAAAAUAIgADPWAAAoR2l2ZSB5b3UgdXApAQEBAQEBAQEBAQEBAQEBAQEBAQGZX6pYWIgKALwAAAC8AAAAAFBW5wiWAAwpkOZOCABFAACuAAEAAEAGtXLAqNOEwKhwAQAUCGwAAAAAAAAAAFACIAAO4wAAQW5kIGlmIHlvdSBhc2sgbWUgaG93IEknbSBmZWVsaW5nBAQEBAQEBAQEBAQEBAQEBAQEBAQEBAQEBAQEBAQEBAQEBAQEBAQEBAQEBAQEBAQEBAQEBAQEBAQEBAQEBAQEBAQEBAQEBAQEBAQEBAQEBAQEBAQEBAQEBAQEBAQEBAQEBAQEBASbX6pYYy8CAJ0AAACdAAAAAFBW5wiWAAwpkOZOCABFAACPAAEAAEAGtZHAqNOEwKhwAQAUB+gAAAAAAAAAAFACIABLxgAAQW5kIGlmIHlvdSBhc2sgbWUgaG93IEknbSBmZWVsaW5nBAQEBAQEBAQEBAQEBAQEBAQEBAQEBAQEBAQEBAQEBAQEBAQEBAQEBAQEBAQEBAQEBAQEBAQEBAQEBAQEBAQEBAQEBAQEBJtfqlinTwoAoQAAAKEAAAAAUFbnCJYADCmQ5k4IAEUAAJMAAQAAQAa1jcCo04TAqHABABQJSQAAAAAAAAAAUAIgAC2fAABOZXZlciBnb25uYSBtYWtlIHlvdSBjcnkBAQEBAQEBAQEBAQEBAQEBAQEBAQEBAQEBAQEBAQEBAQEBAQEBAQEBAQEBAQEBAQEBAQEBAQEBAQEBAQEBAQEBAQEBAQEBAQEBAQEBAQEBAQEBAZxfqliePgcAlQAAAJUAAAAAUFbnCJYADCmQ5k4IAEUAAIcAAQAAQAa1mcCo04TAqHABABQIFgAAAAAAAAAAUAIgAIo1AABXZSBrbm93IHRoZSBnYW1lIGFuZCB3ZSdyZSBnb25uYSBwbGF5IGl0AgICAgICAgICAgICAgICAgICAgICAgICAgICAgICAgICAgICAgICAgICAgICAgICAgICAgICAp1fqlghGAUAnQAAAJ0AAAAAUFbnCJYADCmQ5k4IAEUAAI8AAQAAQAa1kcCo04TAqHABABQJkQAAAAAAAAAAUAIgAHf2AABOZXZlciBnb25uYSBzYXkgZ29vZGJ5ZQICAgICAgICAgICAgICAgICAgICAgICAgICAgICAgICAgICAgICAgICAgICAgICAgICAgICAgICAgICAgICAgICAgICAgICAgICAgICAgICnV+qWEWwCwB+AAAAfgAAAABQVucIlgAMKZDmTggARQAAcAABAABABrWwwKjThMCocAEAFAixAAAAAAAAAABQAiAAz8sAAERvbid0IHRlbGwgbWUgeW91J3JlIHRvbyBibGluZCB0byBzZWUBAQEBAQEBAQEBAQEBAQEBAQEBAQEBAQEBAQEBAQEBAQEBAZ9fqlg9xwQAvwAAAL8AAAAAUFbnCJYADCmQ5k4IAEUAALEAAQAAQAa1b8Co04TAqHABABQIRwAAAAAAAAAAUAIgAM9kAABJIGp1c3Qgd2FubmEgdGVsbCB5b3UgaG93IEknbSBmZWVsaW5nBAQEBAQEBAQEBAQEBAQEBAQEBAQEBAQEBAQEBAQEBAQEBAQEBAQEBAQEBAQEBAQEBAQEBAQEBAQEBAQEBAQEBAQEBAQEBAQEBAQEBAQEBAQEBAQEBAQEBAQEBAQEBAQEBAQEBKBfqljTOQkAxwAAAMcAAAAAUFbnCJYADCmQ5k4IAEUAALkAAQAAQAa1Z8Co04TAqHABABQISAAAAAAAAAAAUAIgAMsSAABZb3UncmUgdG9vIHNoeSB0byBzYXkgaXQDAwMDAwMDAwMDAwMDAwMDAwMDAwMDAwMDAwMDAwMDAwMDAwMDAwMDAwMDAwMDAwMDAwMDAwMDAwMDAwMDAwMDAwMDAwMDAwMDAwMDAwMDAwMDAwMDAwMDAwMDAwMDAwMDAwMDAwMDAwMDAwMDAwMDAwMDAwMDAwMDoV+qWDVTAwC6AAAAugAAAABQVucIlgAMKZDmTggARQAArAABAABABrV0wKjThMCocAEAFAlXAAAAAAAAAABQAiAAS48AAFlvdSdyZSB0b28gc2h5IHRvIHNheSBpdAEBAQEBAQEBAQEBAQEBAQEBAQEBAQEBAQEBAQEBAQEBAQEBAQEBAQEBAQEBAQEBAQEBAQEBAQEBAQEBAQEBAQEBAQEBAQEBAQEBAQEBAQEBAQEBAQEBAQEBAQEBAQEBAQEBAQEBAQEBAQEBAaFfqliUkQoAhQAAAIUAAAAAUFbnCJYADCmQ5k4IAEUAAHcAAQAAQAa1qcCo04TAqHABABQJMQAAAAAAAAAAUAIgAIx/AABOZXZlciBnb25uYSBsZXQgeW91IGRvd24BAQEBAQEBAQEBAQEBAQEBAQEBAQEBAQEBAQEBAQEBAQEBAQEBAQEBAQEBAQEBAQEBAQEBAQEBol+qWGXnAgCbAAAAmwAAAABQVucIlgAMKZDmTggARQAAjQABAABABrWTwKjThMCocAEAFAkpAAAAAAAAAABQAiAAd08AAEkganVzdCB3YW5uYSB0ZWxsIHlvdSBob3cgSSdtIGZlZWxpbmcBAQEBAQEBAQEBAQEBAQEBAQEBAQEBAQEBAQEBAQEBAQEBAQEBAQEBAQEBAQEBAQEBAQEBAQEBAQEBAQEBAQEBol+qWF9XDAC5AAAAuQAAAABQVucIlgAMKZDmTggARQAAqwABAABABrV1wKjThMCocAEAFAnAAAAAAAAAAABQAiAAN0wAAEluc2lkZSwgd2UgYm90aCBrbm93IHdoYXQncyBiZWVuIGdvaW5nIG9uAQEBAQEBAQEBAQEBAQEBAQEBAQEBAQEBAQEBAQEBAQEBAQEBAQEBAQEBAQEBAQEBAQEBAQEBAQEBAQEBAQEBAQEBAQEBAQEBAQEBAQEBAQEBAQEBAQEBAQEBpF+qWBTdBgDFAAAAxQAAAABQVucIlgAMKZDmTggARQAAtwABAABABrVpwKjThMCocAEAFAiEAAAAAAAAAABQAiAADFEAAFlvdSBrbm93IHRoZSBydWxlcyBhbmQgc28gZG8gSQQEBAQEBAQEBAQEBAQEBAQEBAQEBAQEBAQEBAQEBAQEBAQEBAQEBAQEBAQEBAQEBAQEBAQEBAQEBAQEBAQEBAQEBAQEBAQEBAQEBAQEBAQEBAQEBAQEBAQEBAQEBAQEBAQEBAQEBAQEBAQEBAQEBAQEpV+qWP89DwDFAAAAxQAAAABQVucIlgAMKZDmTggARQAAtwABAABABrVpwKjThMCocAEAFAgLAAAAAAAAAABQAiAAM4QAAFlvdSB3b3VsZG4ndCBnZXQgdGhpcyBmcm9tIGFueSBvdGhlciBndXkEBAQEBAQEBAQEBAQEBAQEBAQEBAQEBAQEBAQEBAQEBAQEBAQEBAQEBAQEBAQEBAQEBAQEBAQEBAQEBAQEBAQEBAQEBAQEBAQEBAQEBAQEBAQEBAQEBAQEBAQEBAQEBAQEBAQEBAQEpl+qWD7ZBQBuAAAAbgAAAABQVucIlgAMKZDmTggARQAAYAABAABABrXAwKjThMCocAEAFAmJAAAAAAAAAABQAiAAjjIAAEkganVzdCB3YW5uYSB0ZWxsIHlvdSBob3cgSSdtIGZlZWxpbmcBAQEBAQEBAQEBAQEBAQEBAQEBp1+qWNu0AQBtAAAAbQAAAABQVucIlgAMKZDmTggARQAAXwABAABABrXBwKjThMCocAEAFAf7AAAAAAAAAABQAiAAD6wAAFdlJ3JlIG5vIHN0cmFuZ2VycyB0byBsb3ZlAgICAgICAgICAgICAgICAgICAgICAgICAgICAgKoX6pY4YUFAMgAAADIAAAAAFBW5wiWAAwpkOZOCABFAAC6AAEAAEAGtWbAqNOEwKhwAQAUCWsAAAAAAAAAAFACIAAt+QAAV2UndmUga25vd24gZWFjaCBvdGhlciBmb3Igc28gbG9uZwMDAwMDAwMDAwMDAwMDAwMDAwMDAwMDAwMDAwMDAwMDAwMDAwMDAwMDAwMDAwMDAwMDAwMDAwMDAwMDAwMDAwMDAwMDAwMDAwMDAwMDAwMDAwMDAwMDAwMDAwMDAwMDAwMDAwMDAwMDAwMDAwMDAwOoX6pY78YLAHkAAAB5AAAAAFBW5wiWAAwpkOZOCABFAABrAAEAAEAGtbXAqNOEwKhwAQAUCRMAAAAAAAAAAFACIACImAAASSBqdXN0IHdhbm5hIHRlbGwgeW91IGhvdyBJJ20gZmVlbGluZwEBAQEBAQEBAQEBAQEBAQEBAQEBAQEBAQEBAQEBAapfqliiRQ0AkgAAAJIAAAAAUFbnCJYADCmQ5k4IAEUAAIQAAQAAQAa1nMCo04TAqHABABQJgwAAAAAAAAAAUAIgAM8gAABOZXZlciBnb25uYSBydW4gYXJvdW5kIGFuZCBkZXNlcnQgeW91BQUFBQUFBQUFBQUFBQUFBQUFBQUFBQUFBQUFBQUFBQUFBQUFBQUFBQUFBQUFBQUFBQUFBQUFBa5fqlji1goAiQAAAIkAAAAAUFbnCJYADCmQ5k4IAEUAAHsAAQAAQAa1pcCo04TAqHABABQIhQAAAAAAAAAAUAIgAMhVAABJIGp1c3Qgd2FubmEgdGVsbCB5b3UgaG93IEknbSBmZWVsaW5nCQkJCQkJCQkJCQkJCQkJCQkJCQkJCQkJCQkJCQkJCQkJCQkJCQkJCQkJCQkJCa9fqlhRyg4AvgAAAL4AAAAAUFbnCJYADCmQ5k4IAEUAALAAAQAAQAa1cMCo04TAqHABABQJRwAAAAAAAAAAUAIgAExxAABEb24ndCB0ZWxsIG1lIHlvdSdyZSB0b28gYmxpbmQgdG8gc2VlAwMDAwMDAwMDAwMDAwMDAwMDAwMDAwMDAwMDAwMDAwMDAwMDAwMDAwMDAwMDAwMDAwMDAwMDAwMDAwMDAwMDAwMDAwMDAwMDAwMDAwMDAwMDAwMDAwMDAwMDAwMDAwMDAwMDsl+qWGCUCADPAAAAzwAAAABQVucIlgAMKZDmTggARQAAwQABAABABrVfwKjThMCocAEAFAghAAAAAAAAAABQAiAA8UQAAFlvdXIgaGVhcnQncyBiZWVuIGFjaGluZywgYnV0BwcHBwcHBwcHBwcHBwcHBwcHBwcHBwcHBwcHBwcHBwcHBwcHBwcHBwcHBwcHBwcHBwcHBwcHBwcHBwcHBwcHBwcHBwcHBwcHBwcHBwcHBwcHBwcHBwcHBwcHBwcHBwcHBwcHBwcHBwcHBwcHBwcHBwcHBwcHBwcHBwcHB7lfqlgOZQoAuAAAALgAAAAAUFbnCJYADCmQ5k4IAEUAAKoAAQAAQAa1dsCo04TAqHABABQJqgAAAAAAAAAAUAIgAMzyAABJIGp1c3Qgd2FubmEgdGVsbCB5b3UgaG93IEknbSBmZWVsaW5nFRUVFRUVFRUVFRUVFRUVFRUVFRUVFRUVFRUVFRUVFRUVFRUVFRUVFRUVFRUVFRUVFRUVFRUVFRUVFRUVFRUVFRUVFRUVFRUVFRUVFRUVFRUVFRUVFRUVFRUVFRUVu1+qWBryAwC/AAAAvwAAAABQVucIlgAMKZDmTggARQAAsQABAABABrVvwKjThMCocAEAFAk9AAAAAAAAAABQAiAAS1cAAFdlJ3JlIG5vIHN0cmFuZ2VycyB0byBsb3ZlBAQEBAQEBAQEBAQEBAQEBAQEBAQEBAQEBAQEBAQEBAQEBAQEBAQEBAQEBAQEBAQEBAQEBAQEBAQEBAQEBAQEBAQEBAQEBAQEBAQEBAQEBAQEBAQEBAQEBAQEBAQEBAQEBAQEBAQEBAQEBAQEBAQEu1+qWIEqDAClAAAApQAAAABQVucIlgAMKZDmTggARQAAlwABAABABrWJwKjThMCocAEAFAlFAAAAAAAAAABQAiAAr8QAAFdlJ3ZlIGtub3duIGVhY2ggb3RoZXIgZm9yIHNvIGxvbmcBAQEBAQEBAQEBAQEBAQEBAQEBAQEBAQEBAQEBAQEBAQEBAQEBAQEBAQEBAQEBAQEBAQEBAQEBAQEBAQEBAQEBAQEBAQEBAQEBAQEBAb1fqliTNA0AgwAAAIMAAAAAUFbnCJYADCmQ5k4IAEUAAHUAAQAAQAa1q8Co04TAqHABABQJrwAAAAAAAAAAUAIgAAWCAABOZXZlciBnb25uYSBsZXQgeW91IGRvd24GBgYGBgYGBgYGBgYGBgYGBgYGBgYGBgYGBgYGBgYGBgYGBgYGBgYGBgYGBgYGBgYGBgYGBr9fqlhiawEAvwAAAL8AAAAAUFbnCJYADCmQ5k4IAEUAALEAAQAAQAa1b8Co04TAqHABABQJnAAAAAAAAAAAUAIgAABCAABJIGp1c3Qgd2FubmEgdGVsbCB5b3UgaG93IEknbSBmZWVsaW5nAwMDAwMDAwMDAwMDAwMDAwMDAwMDAwMDAwMDAwMDAwMDAwMDAwMDAwMDAwMDAwMDAwMDAwMDAwMDAwMDAwMDAwMDAwMDAwMDAwMDAwMDAwMDAwMDAwMDAwMDAwMDAwMDAwMDA8Bfqlj5jQkApgAAAKYAAAAAUFbnCJYADCmQ5k4IAEUAAJgAAQAAQAa1iMCo04TAqHABABQJNwAAAAAAAAAAUAIgAKR/AABOZXZlciBnb25uYSBnaXZlIHlvdSB1cAQEBAQEBAQEBAQEBAQEBAQEBAQEBAQEBAQEBAQEBAQEBAQEBAQEBAQEBAQEBAQEBAQEBAQEBAQEBAQEBAQEBAQEBAQEBAQEBAQEBAQEBAQEBAQEBAQEBAQEwV+qWCFFDACpAAAAqQAAAABQVucIlgAMKZDmTggARQAAmwABAABABrWFwKjThMCocAEAFAf+AAAAAAAAAABQAiAA4qUAAE5ldmVyIGdvbm5hIHJ1biBhcm91bmQgYW5kIGRlc2VydCB5b3UDAwMDAwMDAwMDAwMDAwMDAwMDAwMDAwMDAwMDAwMDAwMDAwMDAwMDAwMDAwMDAwMDAwMDAwMDAwMDAwMDAwMDAwMDAwMDAwMDAwMDAwPCX6pY8w4KAJsAAACbAAAAAFBW5wiWAAwpkOZOCABFAACNAAEAAEAGtZPAqNOEwKhwAQAUB/QAAAAAAAAAAFACIAAK1wAATmV2ZXIgZ29ubmEgbWFrZSB5b3UgY3J5AgICAgICAgICAgICAgICAgICAgICAgICAgICAgICAgICAgICAgICAgICAgICAgICAgICAgICAgICAgICAgICAgICAgICAgICAgICAgLHX6pYB7gDAG8AAABvAAAAAFBW5wiWAAwpkOZOCABFAABhAAEAAEAGtb/AqNOEwKhwAQAUCGAAAAAAAAAAAFACIADatgAATmV2ZXIgZ29ubmEgc2F5IGdvb2RieWUODg4ODg4ODg4ODg4ODg4ODg4ODg4ODg4ODg4ODg4ODg4O'
p15
sa(dp16
g2
S'NAME:Dale Anderson (@knotty_dogg) - An employee at your company received a phishing email that contained a suspicious MS Excel file and opened it. The attachment was zipped(gzip) and sent to you for further analysis. The data element contains a copy of the provided attachment. Analyze the file and return the third line of the script that was executed as the answer. HINT: oletools may help out'
p17
sg4
S'Write-Output("Python Rocks!") | Out-File .\\pr.txt'
p18
sg6
S'\x1f\x8b\x08\x08\xf0\xf8\x91Y\x02\xffhof.xlsm\x00\xedzep[[\xba\xac\xcc\xcc\x18\xb3\x1d3\xb3c\x86\x989f\x88\x99\x99\x99\x999f\x8c\x99\x99\x19cf\xc7\xcc\xb6\xec\x18bf\xd2\xcd\x99\xb9\xef\x9d3\x993U\xef\xff\x9bV\xd5\xd6\xd2V\xadO*\xed\xee\xdd\x9f\xd6jE\x19\x08HL\x004\x00\x16\x00\x00\x90\x02*\xd39>\xd9\x81\x01\x00\x82\x90\x00\x00\x06\x00\x16\\\xfb\xa3\x9d\xad\xb3\x89\xad\xb3\x9e\x8a\x87\xbd\x89\x93\x0e\xa3\xbb\x8d5I>$8u\x1e\x00\x1c\xf0_\xfc\x7f\x8dJe\x05\x85~f\xcc\x9e\xcc\x07\xc2\x14\xddI\xad\x0b\xfdh\x03{E>Z\x98\x17\x80\xce\xbd~r\xb5\xcd\x13|\xac\xdd\xb96\x0c9\x1e$\x92\xee\xa2\xcd\xcf\xf3\xad\x13\xaf\x02\xa9\xb54k\x08\xb0\xa6\x06(\xfc+\xb0\xf1^Zu\x8b\x0e\xfa\xe5\xb5\x17\xee\x1e\xb3w\xe2\x16t\x16Y!\x816`+\xc6\xde>\x1c\x19v\xfc\xfa\xe2\xe6QP\x15F7("y\xe5_\x13F\xb2adx\x11p\xf0\xde\x1d\xb1\xd1\x87\xa4ZR\xa4\x92\xd8\xc2\x04\xf1~\xcd\x8a\xd17"\xe2E\xe6$\xe2\xef\x13\xa9\x96\x9b(fx=\xcb\xfe\xb2Z\x7fZ\'\xb8$\x85%\xebi\xd7\x98\x98\x10\x1d\x19S\xe5\x1e\xd4\xa6M\xdf\x08\xdeM\x03\xa4ouSL\x88(0\x06C\xcc1x\xb6\xe4\xdeZ\x01\x06\xcbFjX\xc5q}9\x82\t\xb1=4\xeb\xe0]\xa7\xfb\xce\xfd\x03\xbe>\x1d\xf1R\x8c\x13S\xbaQ\xdc\xbb\xb5\x966[\xfbr\x9e\xbccb\x86\x96\x99\xc0\xca\x7f\x04\xbf,0SK\x13/\xcfS\xd2\xe6\x1eY\x81\x9a\x82<\xb2\x11\xd1\x8f\xf4\xb1\x8a\xd9g\x94\xaed\x11i\x83D\x82XH-\xa2\x92\xa5S&qs\xfa!|\x81\x92d\xee\xda\x11!\xe2 \x9a\xe4[\x15\xd8\xcba#\xff\x11\x8d\t-\x06G\xb1\x84\xe5\x03\xc0O}\x8b\xcb l\x8a\x1fM8\x1c\x0f\xd9\xc6\xfd4\x11%\x92\x9d\x01g8\xc4\x96\x80\xae4\xd6<\x8a\xfdmO\xe1\xd7O\r\x02A\x00\x14\xffE\xa7M\xaa\xcc\xefo~\x8dd\x7f\xc9\x10\xe1\x97N\xf5\x1cM\xac\x9d\x98\x18\xff8\xfeW\x9f\xff\xc5?\xf4\x99(\xa70\xc0\x8c\x18z.\xf9\x126r\xff}#\x1eUD\xc6MX\xb2\x83T\xc5\xd7_j\x1d\xa5)\xa6\x80\x1c\x7f\xa3\x87\x8a\x00U\x05/\x08B\xc2\xaf\xcb\xf7elm\x83/\xe6x\x84\xf4n\x97\xbd2\n\x1d\x93\xf7}\xb3[Uh\xea\x93\x83\x0b\x0c-\xa5c\x8a\xb8C\xe5\xce \x9a\xeb\xf7\xdb\xefw\xe9\x12\xd2\x1e\xd4\xae]q\xb4\x15\xad\xa5_eF\xb7\xde\x8b\xcf_\x8a\xd6\xa1N3\xaa\xe3\xc1a\x14\x11\x84b\xf3\xa7\x07h}\x93\xd3\xdc4|\xa8\x06\xfb.\xa2\xfc\xb3*\xb4\xb6\x85+\xef8i:\xd3o)\xa5\xf8\x08I0\x9c[\xf6t.\x1dk\xc4\xc9\xd0l\xa5\xda{\xc4\x9a\xf4\xf6\x11OU\xd9\x9c\xdb\xa2\xd60\xc7\x91\x87\xccC\xcf\xd8\xba\xf7Z4\xb3\x07\xe3\xd5\x9bA>kD\x89\x8c\x1d\xfd\x81uZb\x98"\xef\xd6O\xab\x91\xfdr<\xdbc\x90\x0bn\xa0b\xe4b40\x8a\xb8t\x13\xec\xefD\x12p\x03O\x07\xf9\xeb\x9d\x92_Z\xc0\x03\xc0\x82\xb9[3\xfdS\'nv\x8eV\x86vvV\x7f\xd8\xd9\xff\xd1\x0c\xd8/\xcd\x80\xfd\x973}\xf2\xff\xe4L\xe7\xc7}^9^T\x11\xf3#FX\x0b\xae\xe01\x08\xe3\xb2\xb5P\x0e\x07\xac0\xe1\xad\x9c\x19)\xe7\xa4o\xad\xa7\xe8\xa3\xcdW\xa0\xdck\xb3\xb6\'\xc7\xaee\x03}\x19]\xe1\x04 \xc9\x0c~y\x95\x1dV\xa7\xea4\x17\n\xc9\x07K\xbd\x93\x1c>Z\xdc\x04\x03U]=\x06\xbd\xba%\x16\x9d\xdd)d\xfa\xc4H3(\x9d\xe8\x81\x82/\xd6<\xce\x19lx3%R\x1f\xfb\x8e\xd2\xc6f\xc6\x843\xabl?1^\xbd\xe8\x86~D\xa2\x8ec\x1fjWC]\xbce\x08\xb7$H\xbc\x06\xad.\xb0/nc\xa4\xa3\x84\t\xe4\xd4\xc6\x13\x0c\x0b0\x90\xd0\x12jE\xc3\xdf\xb9\xa4\xe0\n\xe74\xeb}\x9e\x13(6\xeb[\xf1\xa1\x05:c\x1f\xe2F\xca\xb0z+-;\x86\xe1\x9a\xc5na\x8f[8b\x1f\x9c\xa1\xe0\x9a\xc9\x91\x14S\x9a\x86f\xadK8\xd0\x06n\x88\xf7@zJ8\x01\x98\xef\xebcn\x05?\x8d\x14\x9c\xab\xfaB\xfc\x1d\x87Nt\xc9wt~\xf1g\xfeWC\x84\xf2\xeb\xcc/\x0e\xfd\x95=\x95*2vk\xcc\x88\xdd(\xcb~\xa8\xcen\xaf\xe1\x84\\\xe2\xa7d((t\x9c\x88b\xa9\xcd\xa9\x9f15cCF\x12\xa9Fe"\xf3A>\x8d:v+\x9eG\xb5:\xb2\x91\xac\x82\x02\x02J\xd7\x15\xca\x0c3n\xc5H\xea\xacCo!ahI*X\x9f\xcf\x94\xbd[\x1e\xb7?\x1b\x1a\xd3\'@\xa1I\xd7c\n\xb2\x06\xd5\xd4\xdf\x9f\x1fH\x14\xa1\xf0\x16!\xc3\x02\n\xa5\x1cLl\x92Z\xab\xbfbUD\xb4)"%\xd9+\xd3\xea` Ht\xb9\xc9\x15\xbc\xa3\x91\x1dJ\xab\n\xc1w\xdf\\\xa8\x82Ku\x17\x92\xbc\xd1fV\xd1t\x1c[\x8cl\xe6Hr\x05\xcc\xca\xa2"\x1ceFr\x99\x8aV\x1cio[\xe6\xa3\xd8\xec)\xaar\x01\xea\xf6\x02\xd7\x86\x890\x0b2(\x97\xbc\xca\xd8W\xe0\xa8\x9f\xf7%\xde\xb3\x96\xd6\xe4Y\xc97\xb1\x967\xe2\x00\x80\xc8R\xdd\xe5K\xf7\x9f\xb7\x88\xa5\xa7\x0e(pN}\xcdy\xc9\xe4\xaeC\x16t0\x03\x12H\xbe\x1d@\xb5TJ^b\xc6\x1e\x8f\xf8\xb2\xfdh\xd6l\xfe\xdc[E\x1c\n6\x03e\\\xd7\xf7J\xa3\x0by\xf2!W.\xdbB\x00.{&\x97!K\x8c\xc8\xc7>p\xc5\x99[s\xd0\x83/j\xcf\xec\xd4Tp\xb4c\xd6\xec,323\x0cG\x8d\x85VCJ\xcb\x80K\xe80\x8d:8\x9aR\x18\xd5\x19v&\'\xa4VV\xc6pEZ\n\xc1\xba\xf3\xe2\xa1&\xfb\xbcN=\x19<g\x96\xe1y\xd1qR\xbf\x93\x07\xbc\x9e\xdb\x1bNndj\x1dU\xfb\xabZ\x14fM\xe2\xcf\xec\x00q[A)\x93\x9f\xae\x04H\r\xfc{Q\x9dD\xa1=\xfa\xd13\xd5\xfa8\xb4D\xf5x7\x82\x15\xd3\x07\x1b\x9c\xebN\xae\xec=Ok\x84\xb3G\x01\xe3"\x84\xca\x88\xc6\xfc9G\xc3\x9b/\xbd\x08\xda\xb7\xd9\xb7\xdb\xbe\xb5>\xc6\xdez\x9a\xcc\x9e\xc2\xb8\xb7}\xd3\xb5\xcfP\x81\xb8]\xa2\xf5\xc4Y5\x1bJ\x8f\xb5e\xd9\x9dg\xa6\x10\xef\xb3\xed\x15o\\v\xeea\x0b\xf0)\x02]\x1b\x83~\xf8E\x07\x8e\x9c\x83\xf4\xa9\x9eW\x96\xad\x91\xd1y\xc6\x95_\xf6\xc36\xc9\xeeL\xbf\xee\x01\x93F\xe0\x98\xcc\x02\x9c\xde\xc9\x83\x9baU\x07\xf1E^\xbbtG\xe7\x80\xce\xb5\x00}\xa3\x0f\xf5\xce\x9aj\xa2k1\x947\x80\xf3Y\x06\xba\xd4\xc1\xde\x0cD(\xe1\x9c\xde\xc1\xb4&^O\x13\xc1\xbf\xb5\xfc\xde\xe8w\xbc\x04\xa8\xbf\x86\xcc\x00\x00\xda?\x99\xe8jh\xa0\xe8hgib\xe4\xcchha{\xaa\xe5c\xad\xbd\xe4\xd2s\x9e\x90b\xae\xe5h.\xe6\x80\xa9-\x9dST\xa8F\xf0\xc9\xa3P22\xbaJ\xe5<!\xee\x8b!\xcd\x17Y1G\xf4"t\xc1\x1c\x13\xad/\xa5\t_(\x86\x1d\xae\xf7[\xc3\xf1\x9dK\xd7\xb04gm\x84:n\xe3\x0cW\xda\x0b\xc5\x82\xb0%\xb5\x87,\x02\xbe\xca\xe0C\xb8f\xd8\x9ag\x16\x8f\x12\x8b\xcd\x82\x0b\x834\xb8\xf2\xd8\xeey\xcf?\xe6w\x13h\x9e\t\x04>I\x0bn\x8e?{\x9c\xf1\x1f\xe6x\x9d\xb5u\xde|\xab\xd6\xf3>*\xe2?\xafU\xdd\x1165R\x1f_\xd3T\x15\x13\x08c\x17Fa\xfc\xe6N\x0e\xab>\x0e\xacO\x8e\xd9\x9f\xbc \xd5\n\x00\x81W!3\x9fs\xf6"[C\x84\x1f~\xefu\xcd#\xb2\x07\xe7\xf5\xc7\xcb\xc3^\x86[\x07o\xf5\xd7\x11"\xb4\xa7\xab\xc5\'\xd1\xac\xb5WF}\x03\xd5\xf4\xa2\xa5\x0c\xebE\xc0\xc9\x1a\xcc\x87#\x9cb\xb6\xb6>\xd6\xe2\xa3\x1bM&\xee\xff\xc80\xf8\x11\x06z\xb4~5\x99\n\x95\xce\xd0_ 0eM\xaa\xb6\x1aLN&\x9c\x91\\| \xef9\x81v\xfal:\x84\x95\x1c\xba\xec\x90b"\xc6\x19\xa8J]+\x952\xb7d\xe48\x8f\xf9\xd3\x80Obo\xbe\xfb\xab{\x03\xd2\xd6W1!I}o,?\x8a\x83\x959\xda\xd3\xc1\x87F\xbd*\x8eeY*F\x95\'r\xb4h\xa1\xa7,\xe7\x0f\t\r\x9e \x0cA)\x18\xebF\x90E\xae\xfa\x99\xdf\x1cV\xa1\x84$\xca:2;\xc0\r\xe0\xe5\xdf%\xf4~\x06r\x1dn\x1d\n\xb6W \xef\x9d9\xd8\x19\xf4\x19\x98\x00\xb8\xe2VU\xf89\x142\xe0\x1e\xcc\xc6\x1f\xdf\x1c\xe6\x0cF\xd4_m\x12\xc1\x19 \xd0\x8b\x02\xe9/O\x02\x1b\xec\x0f\xe3\x1f\xd4K\x9a\x87\xe0\x8e\xfa@=\x83\x14\x7f:*\x84\x9b\xc7\x825\xf8\x89\x04\xfa\x06\xd0\xd5\xfb\xb1\xd7 \x0f\xe5\x07\x0c\x11\xf4n/\x80\x19\x96\x00\x0c\xbd\x17\xf5\x02\x96\x191\x1a \x11 \x110\xec?\x1c\xf0i\x1bn\xdb\xa8\x17\x97\x19\x99<\x003\x1e\x9a\xd5\x1f\x9e\x00\x82\xd2\x7fO\x08\xfb\x03X\xbc\xe8\x81?\x8d>\x1e\x89\x96\x19*\xe8\x9d" R\x08.\rJ\x1e\xdc\xc9\x94puR\xe5\x9e}\xb7\xc4\x9f\xadw8\xa0\x04\x0ci\xdb\xf5#\xf8\xa6\xc4\xae\x8bd\x1f\xd6 9\x12\xb9l*\xda9W\xc8\x97\xe0\xc2\xa3\xabQ\xae\xb2B(\xbd\xa9\xbd\xe7qI\'\x95Z\xf2\xbbPX\xa5\xa9[\x18\x9c\x8c\x19}\xf2d\xe7\x1b\x8d\xdd\t\x07\xf2\xe0\x1b\x1b\xa2K\x18Z\\#\xd0mP\xc4\xf8 \xae\x07v\x9d]A\xf0H\x85&^?\xde\xb1\x1f/\xe5\xd1\x81f~\xdc\xb7"\x9f4{\x86"\x01\xb3BE\xdf\x11I\xcd\x05\xa7x\xfe\x84l\xe8\x1f\xd3\x08\x90u\x10"\xcbX\xe2\xb1\xaddX\x9cN\xa92UZ\x98\xcf\xb5\nS?\xcc\xf8c\xfa\x1c6D\xe3\xc4\xeb\x95\x18;jyx|fl\xb0\xd9\xaan\xbf\x9e7FY\x94(\x11\xfdD\x8f\xd2-\xa8f\xc4\xf2\xacw\x94\xa31\xea\xe2\xe8V\xf35Y\x11\xbfu>\xa6\xa3v_#s\xa7\xbb\xfcN\x8cz\xf9-PE:g4\x03G\xcfX\xa9Le\xa4\xd8TF\x16+\x14X\x17\x96\xa4,\xe9\x0c7\xf9q\xd8!2z\x1f!\xa9\xcc{\x93c\xe5\xf3\x89\xb3\xaf\xb4<6\xf7\x9b\xf2\xae\xc5\'\xcc\xae]\xa1\x19\x0cG\xb6Ts\xa7\xe0\nM~\xbd\xe1\r\x86\xc8\xee\xde\xf4\x90\xd5\x12\xc36o\xda\xf4=\xc66t\xb6Q\xf6\xfb\x15sV3\xa6r\x8et{a\xb9\x14\x82Q\x95\xb3\xe6\x0ehx\xcb\x83\xc0\x8c)\nMU\xbb\xd0\xae}\\\xda\x89\xc5\xb1\xb1\x17Y"\xac\x13\xfc\xb0\x85\xb2t\x02\x99\x94\x85p\xad\x91\x9c\xc6K\x97\xdcd\xb3\xa8\xa2\x17\x95\xe6c)\xafA\xf1\xf6K-\xe1-\x903<A\xe0\x9d\x1f\n\x87\xce\xf2=U<2\x84]:Uy\x1d(\xd7\xcf\xcd\xe9\x194\xb9\x9b\xac\x97#O\xf8S`\xed\xe9\xae\xc7\xaf\xfe\x12%\x0e\x16\x99G\x1fW\x9b\xfd\x07\xc9\xcfv2\xc5\xf3i\x1f\xd0X\xb5\x91\x1e\xc8\n\xb8\xf6,Oa\xebu\xf6\xa6\xd7\x11\xef\xa6L,t\xec<i\xaf\xf3\xe4\xdf\xd8\x1fs\x04\x81\x165\xed\xa0\x07\xa9W\xadN\xdc:c\n]u\xb4O\x86=\xd7\xec\x90\x86\x97\xea.\xe0;5^3\xb5\x15\xd0\x01\xd5T0\xef\xf9\xb2\x1e\xc0\x01,|\x18\x9en\xaa\x1a-y\x9b\xca,\x0f\xf5\xfb6\xa3\xcd\xbeHA\xab\xf1\x15\x84T\xf5\xb1Mn\xe6\xb9\xb0e\xca\xf7\xd26\xc7\xf16\x93n\x12\xe3\xb6J\xfbT\x9a\xdfl\xa1\xa4\xf3~2(\xe1\x00z\x87@\x8f\xc8\xa4(\xd6\x1b\x9e\xaf\xe1\tw\x98Z\xb5=\x96\xbfd\x9c\r\x98\xa4\xab\xd3\xc1huhs\x0b\xf2h\xe8\x86\xe6)#\x9cL\xdfExZ?\xda\xfbv\xf3Saf@\xfd\x86\xfb\x1d\xf1F;!\xacU0\xd5\xf1\x12\x02\xb2OW\xa5&h\xf6\xa6\xca%>\x9ey\xa6\x96\xa9\xff\xac\xf0!\xb3V\x98\xe6\x8c\xf3:n@2\xef\x1c\x89\xf2\xe3\xdb\xcaD\x8f\xf1\xb7-v#\xfa\tu\xce\x85\xa5\x88=\xcb\x16\xad\xab\xf8\xfc\xb7dk\x05\xec\xc7\xc4\xeaR\x9c.\xc3\x19\xba\xf6t}\xb7S\xc4\x8f\n\\x\x9e\x19\x82FGG>\xeb\xf7\xf4\xfc?G4=WU\xebo\x1a\xe3\xebnn\x18\xef\x02\x8bJ\x08=d\x14\x1a\xb2\xcaJ*\xe4\xaf\xdc2=\xdb);\xde\xf1\xeb\xf4\xe5a\x8dR<\xff,)~\xbd\xcb\xe7~v\xbb|-\xc0\x12\xf7\x9d7\x01\xd2VeZ\xcci\xdei\x0b\x9e\xf1\xbe\xd3\x88\xe1\xd6\xc8\xc9\x89\x81n\x13\xefF\xb8G9NT\xe1c1a\xd39\x95(\xc2\xab\xbfB\xfd\xa6\xcf0\x8fd\x8f\xb8x\x83\xa6\xf1\x1de\x87\x08o\x91\xe1h\x12-\xe8yi\xcev\xed\xf4\x01\xcd\xf9\x15^\xc7\x12\x95\xb5\xb6v\xd4w\xd3\xb2\xf6.\xb0I\x81s^\x81(\xb9=\x9a\xcd\xe1{\xe5\xa1\xf3\xf3\x9b\xa7y\xd9V\xff\x8bT\xc1\x1c\xe1\x10\xe2b\xfd;\xe5\xe5U\x91\xd6\x99\xd3\xa0i+\xa7)|\x94:\x8fg\x1f\x1fmG\x1d\x97[\xc1/R\x9eY\xf4\xce\x1d\x1e\xdd\x97a\x95I\xb1\x82\xa2-\x08\x05\x0b\x1a\x9f\xc7}\xb9L\x05ba\x0f\xe9\x04\xdc\x16\xf8KO4\xc8i\x9c\xa4\x12\xab\xb0\xf2\x17\xab\x80g\xf0pT\xe7\x04\x1b\xf71\xd7\xc1S\xca\xe5l(\x1a\x05\x82/O\xcfk4\n\xcc\xcf\xf3G\xee\x07\xf1\xbaq\xc7\x9fgx\xf5L]\x8b\xf6\xd5Vo\xf7\xb6\xb1\xd5\x1d\x9aU\xe6\x1a=\xa5\xe8,\xf4\xec\xdab\xd8\xe6\x7f\xf4\x05\\\x9b\x14\x8dT\xd9\x18\x9cZ\x14\xbc!\xe52\xa9Vz\xf4\x05\x88\xb1\x15)8-\x8f\xd6S\xd5B\x85\xf1\x87\xe1\x17\x8f\xcbn\xc1\xa5B\x116|\xd1\x83i\x81J\x17rm\x04\x92\xae-\x96\xf5;8o\xf2\xd9i}S\xa8\xddZ\xe9\x98\xdd6I90\xbdzo\xf9u\xb9\xe0\xe0\t\xf2>|\x1bm\xdd\xc0\x80R\xb0\x84\x88\x86H\xfd\xd91P;[\x1eA\xe2`?k\x81\x8d\xfa\x16i,HI\xa1\xe6KF\x92\x82d\x9dD\xe1M\xd6K!fJ\xa1Q";)\x8d0\r\x1bu\x94\x92\xc6\x97X\xd9\x116%kyOk\xd4G\x83\\g\x95\xc4\xc3\x94\xd5\x1d/\xf1D\x9f\x05=od z\x86\xec\x08\xff\x82\x9ex\xa2t"+5\xbf\xf4\xeb\xb6W\r9L\x19\xe8+\xf7\x8aQ,q\x92a\x92\x9248\xff\xc8yf\xfc\xbc\x92u\x9b@w\x94\xd24\xe4\xed\xbc\x140A\xf8\xa8\x16SN\xc6"\x1ff/\x80\xe8\xc6nn\xe5}\xfa\x8d\xbcd\x17\x06{\x8dT>\x1d\xd3P\xa0\x92%\xb8\xb3X\x95\x076\x8b\xc2Q+\xe6Y2\xf2\xbc\xb7\xe7Ax5X\xd9p\xfe\xfd\'\x1anj\x1c$\xcf"M\x1a\x1e\xaa"\x8aG\xcc\xc9\xb5\x0c\xaa\xb5\xe9N\x1e|\xbf(\xac\x1a\x93\xf7C\xf6\xa4\xbc\xca\x96\xc3\x069\xe3}>\x98\xdb\xdc\x1f\xc2\xbcKI\xf36\x05\xfd\x99\xc0\xbbG7\x847\xe7\xf8<\xc2s\xc2\xbd}\x8c\xd2Y\x06_\x9aR9\xdb\x97n\x0f\x1dx\x0eTX1\xd1\xad9)$\x1b\x8a^p\xa3\xa6K\xe7\xab\xee\x17y<\x02\xea$]\xa5%\x11p\n\xf3\xe3\xf5{\xd2sj\x9b\xaeP\xa1>b\xa7Q N$B\x9bF@4\xec\x07h\x82\xf7\xd1G\xe8\xa7H2\xcbP\xa6Q`N$\xc2Ob"\xb8v\x98F\x8a\xa9\x1e\n\xb8"Ta\xe0\xc4M\xd3\x9c2Fx\x90"~\xe6\x1b\xa0\xd7\x84ub\xe1\x14O\xec\x8dA\xe2&\x81\xbd+\x91\x82\xc6#\x81\xd4\x92\xe5\x85M\xe1\x12\x82\xce\xe9\xd2\xa9\x80>9\xa1"\xaf*r2`\xc2\xed1\xb7\xf7%-\x8e\xf9)1\xf4<M\xe1Y\xe8\xf4\x1eC\x89.\xadJN\xde\xd2\x0b\xe8\xdd\xd2g\xf5\xd3\xdey\x8d*R\xac\xaa\x94\x8d\x9b\x8cP7\r\x10\xd74\x00\x81\xb4})\x12\xd6L\x8c\xe8\xea?\x80\x90\'\x92a\x82\x1d\xe4&}\x18u\n\x83PC\xb9\x90\xd8\x8b\xb3\xd2r\x93Y3\xb6[\x86a\xd9\xbe\xb0\xda9\x08\xb4\xcd\x9e\x9c\xbck\x89\xac|\x1d9m\x8c\xb7\xc5H\xd38Q)f\xd3x\\Q\xa9\xf2\xc8\xc7\xd72j\xc8\xad\xa1\x02\xc5.|\xf6\xe0\xe5d\xdf\xe1\x7f\xae\xe7\x98\x14V\xbe\xac\x8c\xe1\x05L\xebX\x87,\r\xc1\xd0QxB\xb4Tb\xbb\xeb\xad\xee\xf4X\x04\x9c\x17C\xddMA\xe0\x1a\x00\\%\x89|{\xc0\xbd\x03\x95Q\xd7\xa9\xe91\xea\xc7"%[\xea=\xd6\xe3\xc0/Bc\xf3]\x89\x80\xca\x0fY\xba\x9f\xac0\xbbG\xe9_\xc2\x17d\xd0>\x14{\xdd\x8e\xf6d\x89\xe6\xc0\xcb\x98-46U\xb6b\xb0\xbbO|\x86"\x9aw\xc5\x0e\x88k@\xc1D:\x11\xb8\xd4l\x9c0@|\xe7\xf0\xe9<\xb3\x94L\xb0\r\x10e\x03\xed\xc7\xcd\xcf\x15\x91P\xcf\xc3\xbf\x1f\xf2\x19\xb9\x9f\x87N\xe2\xad<\x16_\x8b\x1b\xe5\x07b\xa0\xb8\x03\x06]\xcb[\xc6`\x1d\xe7\xb0\xf3\x98\xea\xc4 D\xee%\xb5\xb5\xc2\x1e\xa11&\xe7\x0f\xc7\xb2O\xc5\xbdI\xf8\xd0\xc3\xcf\xcc\xacEX\xd1\x9d\x9bZt\xdbJxtrV\xe2\x0ck\xc2\x05\xfeoJ\x17\xdb\xe5\xd4_\xd5S\x04\xa23\xe7<:\x9f\x8a\x80X\x0fmKc\x9a\xc3H\x1b\x07\xda$F\xa2b@\xcb\x18\xff@\x0b\xc9\x8fD\x02\xbbd\xe2\xb2\xdbCa\x9b\x82\xbbB\x00G\xeeH;\x8a\xae\xac\xc2\xb8\xd5T\xe6\x02\xcc\xa7\xf0 O\xb1\xc3W\xfa+I\xf8Tn\xbdQ\xb7-\xf4\xad\xae\xf8R\xeaV\xac\xd9\xd7\x18\x83\x8b\r\x14\x8bH\x11\xcfu\rR\xb4\xf8\x84\xc4O\xd5y\x83\x17Z\x92\xd4\x1c/I\x02l[\x08\x82E,ISrW\xafq-F\xbby\x9c\x91\xea\x80\xdd\x1eR\xa4W\x8d:\xf7!]M\x05\xf4E\xe9\xe5\xdb\xd1@$\xcf\xb00\xadrC\x8e\x0fm\xae\xbb\x1a\xef[>\x13*\xc6\xdd\xd8\xe6\xcdvf\xce\xb7\'UyxP\xbf>\\\xc9\xe0\x02\xab:qt\xc6aum[*\x9fS\x1eW\x9cW\xa0\x1b\xcc\x0b\xdc\xea=/\xca!:e\x84]\xa9\xef\x84\x1dy\x98\x9f\x04|\xf78\x81\xac\xfc\x14?\x02\xa6L\xb8\x18\x91\x81\x8e\x93\x91%\xcc\xc7\x8b\x1d\xf2-\xf7\x17t\'\xc9\xe3\xfb\xc9\x85B\x9b\x80;6\xf3\x0bG\x0f*W3`U\n\xcfu\xcd\xfc\n\xa9\xaf\x8b\\\'h;Q\x96Tr\x83\xa6\xb8$`\xe2\xbe`$o\x82\xa3\xf8\x9c\xc7#\xd9\x85\x9ei\xa8\t\xd7\xbe\xe1t\xa0\x0e\\\x10t\xad@\xfc&\xbb\xc5E\x96k\x1b\xf5v7\\\xf4\x82\x95\x9f\xd1<A\xe7\xb8\xe3Vc\x92\xd55\xed!\x80\x81\x01\xba\xa0\xe8HV`\xf1h:\xe5-\x0fQ\xe8\xbc\xd4\xdaJ=G|\x9d<?\x7f\xa2\xd2\t-%LN\xf26o\x1f\x81\xfb\x8c\xd1\xe0\x80c_\xb3n\xaa~0o)\xdf1=d}g\xa0\xf9\xf4\xca\xa43\x82?*\xef\x05^\xe3\xbb.\xeb\xea^\x91\xcb\x99\x04\xb6\xc5\x97\xc8\xe9\xe5\xc7\xfaz[\xd3\x96\x96\x9d\x01\xf9V7$\xeb\xe2\x8bE\x13\xe6\x93\x17O\xe55\xb6\xd7\xb91T~:\xa4D\x99\xab\x0c2\\\x1f\xcaRY\xa3\x7f\x99r+\xa3\xf7=\xd5\xe0\xac\xda\xe4<1\xe4p\xe5\xb3\xd2\xa8\xc1KR\xe8:1\\\x13\xb6\\\xf9V\xc7\x024f\xe5B0S\x1b\xe8Q\xc2\xd00\xb5/~\xb5\x8c\x8b\xfa\xbe:)\x11?\xca\xc2\x9a\x08:&l\x9cm\xb0GP\x92\xa9\xd1\xa5\xc8_\xf0\xe0x\xdd\xa7\xc9o\xd5\xa0}\x01f\xa6A\xcd\xcbu\xec\xb4\x84+V\xbc\x1a\x07E9\xdc\xdd\x181\x8aV\xba\x83\x7fBb\x93\xfd8\xc0\xfa\x12w8\x13$\x85<\xd1W\'c^\xe9\xc7\x90:\xbc_\x974\xda\xaf\xb1z\xd7\xc2\xa8f\x13\x06\xa7\x80\xedm\x89\x93\x90\xbfv.\xbaR[[\xec{\xa9\xb6\x10\xa6\x0blu`6\xce\xf55\xfb\xd1\xff=\xc0\xec^hOK{+\xc0\xb9\xed\xf4\xc5\xdf\xa6G+\xef>/\xd7qef\xd5\xed\x8a\xb3\xf0\xeb\xfc,UI\x8f\xda\xc9\xcb\xd6\x1c\x0c\xce\x13\x9em\xa53>0\xcd\xdd\xff\x90\xc9\xda\x8c\xedV\x95\x9f\xd35\xc5,\xfd\xfe\xd4\x95o\x93\x8b5j\xe0p\xbe\xc8\xe6Fzsr)\xb7t7[\xa7\xb3!\x83\xc9\xfe6\xd6F\xd5e\xed\x91\xe7\x15\xf6\x91@>+\x0c\xf9rj#\x9a\xce<\xf4\x0b\xdf\xc8V\x9d1\xba\xb91\xc6B\x7fqg\x18\x08\xb7\x81\x107f\xc7Ef\xe0:\xa5\x06B^Y"i\x83\xc8T\xde\x97J=l\x98\x01\xfb\xc3\xfc\xae\r\x8e\xb6\xbeO01n\xc8E\xff~\x1a],\xa5<\x96D\xf0\x83d/\x97\xa5rW-\x83cY\x8a{.x\x10:NE\x991\xcdZZn(S\xb0\x97x\x00\xaex\xfd\x91\x13\xfc\x94R\x8cIM\xed\x8d&p|\xb5\x9a\xc9|=\xb0\xbf3\xc1\x9c\x99\xecI_\xf1\x01X\xba\x7f\x17\x9e!\xe1:\x8e6TC\xa3N\x0e\xa7Nf\x93y\xdf\x99\xef\x93#\x87\x99\xa8,\xc2\x8eP\x1e%r\xe2\xcdl_\xc3\x897\xa5 \x07,\xb1Y[1\xf7\xe3\xd4\x19\xc11\xa0I\r\x1e\xbc4\x06\xa3\xbc2\xe7\xc3\xfb\x89\xb4Wx\x1fwG\xb5\xfb3!\xb4\xbb;\xc5Lg\x1a\x11\x96\xa8g\x86\x11\xfer\xa1\xff>\xb8{\xc8\xba<\x9e>\xab_\x99~\xc9{|\xa5\xc5\xfat\xb1\xa1\xb9x\xfc\x85\xd0L\x8f\xd9\x15a\x9e\x18\x8c\xcahb%o\x83\xa7\xd0\'\xd9W\xd7\xd1U\xd4K\x13\xe41Jv\x7f\xff(f;\x1d\xe7\xea\x0e\xb2\x91\xd83$\xe4\xf4\x8a\x9b\xf0`\xccq\\\x8b\xdd\rCc\x9d\xb6\xb1\xeah=\xdf\x9f\xc9\x9c\xac\xdf\x13H\xef\xd8\xdbM\x17m\xe9n1\xc4\xb9\xa7lvi)\x8d\x8a\x9bc\x12\xbb\x93\xbdU\xf1"\xae\xf65:\x9f\xc6\xd6{\xd8\xd9<\xcc>\x7f\x1b\xdf<\x1e\xa2Dw\xd6\x937\x89\xe1\xe5\xcete\x1e\xf0e\x1f\xf73\xf8:\xbbsQ\xafMpY\\\xda\x8f\xfd\x9c\xf9\xa5\xe2\xb9q\x035\xd2~\xc4%\x01\xb2\xd31\xc8\xce}d\xef\x10\x89\x07\xad\xc2\xb7\xca\xd0\xb6R\xb5\xe4\xe7m\x84\x83]a\xc5c\xe34\x0e,\x14\xdf[\x1e/\x89\x04\xefFw\xa9\x82\xabL\xbd(\xb1t)[\xde\xc3\x8b\xb4\xd96\xa2\xedv\x82\xb7\xa7\xabt6\xa3\x8b\xaa\x92\x0fH\xc2\xf3\xa2\xbf<,\x12\x0f\xba\x8fn\x0c\xd1\xb1C\xb6\xdc*\xdb\xbdC\xb5##\xb5\x89\x18\xba\xd7\xc7\x872+\x97\xb1\xec\x9a\x82LVt\x91\xd9\x9bg\xe5\x85\xbd\xd0\x14z.}\xac\x8cp\xb3\xfa V1l\xe9d(\xad\x14\xf5,\xce\x85#\x8cw\xe0M\xb2d\xf8\x04\xc5\x03\xb3\x06\xc5\x04\x8b\xa4\x1ff\xbf\xfa \x0f\x1d1\x0c\xb3\x87\xde\x03\xcb\x8f\xa4\x14\x121\x8f\x1d\xfb\xcc\xf2\xee\xf95[\xa0\x87<\x14(DB@\x19,B]\xee"\xb0\x99\xc4\x94\x02i\xd2](o\xb6\x108\xc3\xebC\x0f\x12\xadr\xb2\x98\xca\xa9\x9e\'\xecC\xb6#\xdf\xc6\xd8\xd81\x97t\xf6\xe2\xdb)\xe5-}\xe0Y\xcf\x0f?\x13!\x8a\xa3~*b\x83\t3\x01\xea\x03\xa5\xbf\x9a\xcd5j_\xb73]\xa7\xbd\x80\n\xf1\xab\x88m\xacC\x9f\x15\xf2\xe7\x14\x96\xd88ZJ\xa1\xe9\\~.r\x1c-j\xfb\xa6\r\xeb\xf56\xc6\xb4\xccg\x8a\xff\xc8\xdd\x85\xc7\xbc,\xc0\xc0\x82/R*p\x8d\xb0\xe9\x9f\xf3\xc3\x8dU\xd0yt\xf3\x80\xb0\x01\'\xc5\xbdj\x86\xf3eY\xa0\xe4S;ao\xb2H\xcd\xbd\xf2\x8f\xa7\n\x17\r\xeb\x91[\xce\x10<\x03\x19\x82\xdeh\xe2\x1e\xb7\xc0\xffv)!*\xd0V#\t\x1a\x00\x88\xc5\xfbc\x97\xef\x1fK\t\xce\xe6&6&\xff<\xb2\xfc\xb1\xb0u\xaa9\x1d\x85\xcf\x85\xd9\x8d\xf3$\x88\xe8\xe4\xf6bej\xcdt\t\xedem\xb6vJIzR\xb8_\xdad\x12W\x9f\x91\xf0n\xb4\x83\x85T1\xd1\xe8\xabbF\x8a.|\xd7\xad\xe2*4\xfa\x0f\x8aW\xabf9\x0b\xe5\x91\x9e\x19\xaa\xc9\xe5\xf7U@\xdb\x0c[\x12\x06\xcd\x01\xd6\x82\xc7\x9b\x9b\xa3.\xae\xad$v\x1c\xa6\x8d\x982\xa7`ey\x8d9\xd7\n\x1c\xda\xea\xa0$4\xfc$\xe3UW;d\x98\xa2\xe2\x13\xfb\x80D\x96|\xfa>\x1b\xb7\x806/\x8b\xe7\xd7{\xc6|\x06\xb4\x1d\\\xde\x19\xc1\x1d\xed\xd2\x9f\xe2"\x13\xcdc&\x02\x81\xa6\x83L\xb5\xef\xe4\xb7W\x82\x8bX\xd0\xed3\xe5\xc7\xf70\t\x836\xd2R\xac\x92\xa5\x15c\xd1\xa4>S\t\xb3\xa4uq\xa6\xc7\xa3\xb9\x86\xce\x15vt\xb1o\x96\xd8g\xc22\xe2\x8b\xb3o\xa4\x16\xd7\xcd~4\x18\x0eS\x8d\xd8F \x9a[\xe0\x16i\xfc\xd9\xff\xc1\xc8\x95o\xd0-\xe4Dq\x10\x8a\xcf\xbc\x03\xeb\xf60\xa5\x85)eVm3"\x12\xc9\xa7\xc9\x17\xe26\xf5~\x9c7\x1a\xc5\xcar\xc2\xd9\xb3\x16o\xe1\xda\x9b\xe9G\xe5)\x1d\x00\xeb\xa4\xd5\xb7\x80\xf8&(\x99\x1fJ\xa8\x00m\x82}/\x7f\xed\xa6\xa3\xcavz\xba\x0e\x8f\xba\xa3q\xf9\x8c\xc3\xf3\xb6<`\xe9ti\xe9\x83\x9b\xf7#\xdb\x05\xfc\x97\x95\xfb\xc5\x8b aX]\xf6_\xe3\x1d\x9f(\x05\xbc\xa6\x99?N\xef\x04qx\x17\xcc\x1dy A\xd4\x08\xa1Q\x8c\xee\xe0\xb5\xef\xc2\xdc\xdas\xafa\x19\xf7\xff\x88\xc5\xda\xbc\xea\x12.H\xc1gR\x8cG\xaa8M\xfc(\xabA\xc6\t\xd4\x8a>\xabu\x06\x00\xe0\n%\xe3\x07\xd1\xa2\xde\xe5\xe4\xa1\x19;\x84SsKF4\xc8\x14\xa3\x91o"RD\x7ft*R{\xa7r|\xa1\xf7\xc6\xe7R\xc4\x17\xd8\xcc<\xe7)\xa3\xdb\x1b\\\xc3!%\x80L\\dL\xb9z\x16\xa6\xff\xfd;\tS\xae\x0f\xe8j\x05\xe3\x10\xd80L\x85\x92\x93\xc3\xf7p\xb4\xbf3\x90\x04#h\xda\x1c\x1d\xcbK\x9d~L\xa8\xe7\xfd\xbc\x92\xab\xe7w\xfar\xb9\x9f\x89\x13\xd7]\xbb\xd7\x16\x0b\xba\rS\xf0}|t\xe2E\xa5\xd4v\xdfyL\x8d\xf3\xf3zzxT\xcf}{\xdbx\x8f\xd0\x99\x94\x0fA(@\xcer0\xa5\xea}\xba\xae\xcf2!\xe7\xd1g\x1c\x8b2\xe7\xb7h\x84Kjx#\x84\xb6\xdc\x9cv\x165\x02\xd0\xd5!\xb1\x1cp\xa9;\xea\xd4\xa6\x81\x8dFr\xf7\xf0\x1d\xden\'.r\x12\xa6\x7f\xaf\x17a\x08\xd1:\x8c\xfb\xb3~\xe1\xd8\x9f\xce\x91~r`\xc0\x83\xb5\t%g\xcae\x1d)8\xd6\xda(\x8c\x9aEd-wZH3b\xd2\x18\xd7 \xe8\xc0%\x12=\xa0\xf8C_\x7f\xc2\xf42\xe9\xb7\x94\x95\r\xca\xc1\x8b\x13\xa2wE\xd1\r\x11\xf6\xb6\x18%Q\xe1\xdf)>:\xea\x93+\xcdZ\x84\r\xa2\xa6\x86\xc4\x90\x04\xaf^Ln2\x94\x8c\x97\xda,\xf2{\x1b\x93\xed\x84\x08-\x88\xf8\x86\x97\xed|\x1b7gT\xb4f\xe3\x16e\xf9N\xd8\x1d%j\xfc\xbe\xadGR\x82\xa7z\x1aJ\xd43\x92\xc6\xe9\xc9h\xa2\xadj\xba\t\xf3\xa0\x02\xea\x15><\x8a\xff\xd4\xcb\x19-sD%\xfec\xe6\xa4\xce`Z\xeci\xdd\x00\xb3\xc8\xe5\xc4X:yB\xec\xab?\xb1H$\xd9!\x0f\x06\xe7\x03\x11\xdb\x16\xaa\x07\x8a\x83\xd0\xe87\xfb-\xb2e\xd8\xfb\x15\x11{\x0cg\xd5\x12\x15\xf2poV\x05\x86\xba\xce\xe8\xf4G\x01\xc6\x1f\x90\x06E\xac$\xcf\xa1\x19\xc3\xe4\xdc\xca\xab\n\x11\xed \xf9\x85\x86rg\xad\x05^\x9a\xban-\xde\x92Bo\x8c3A\xeam~v\x85j#w\xb3E\x84e\xdeW\xdf\x92\xad3\x90n\x0fW\xd7\xf8a\xcdj\x88bP(N\x85K\x93k\x1c\x17\xe3\x06U\xf0\x9cO]\x9e{j\xc5w\xde\xb0+v"\xa1\x82U\xb5\xd2.\xa0%\x1dW\xd46\xeb\x165n\xabE\xa4\n1\x95\xc9\xee{\xb2\xfcW\xd8I\xfd\x08=U\xfcY\x9ai9\x8566#\x02\xb5\xb7rM\x9b\x88K\x9a5K\x10s\xdc\xfd\xf2\x87\xb5:\xb5\nG\xb7\x8c\x08\x18\x89|\xf3\x9a\x87\n\xd7e\x9bpDB\xf6H\x9d\xe5\xb1\xce\xd5%\xf9\xef\xb6\x1eRBw\xafT\xe4\x8d}\xb2\xe8.\x08\x11\xdf\xea\xd1\xf2/\xdc\xc8\x17&\xa6B\xc4\xc6\xfb\xf3i&\x99>6E\xef\x8ea\t\xd9`ai\x08r\xd7\x1e[vt\xa7fC\xf6\x16\xc3\x7f\xe2Kq\x18C\x86J\x99M\xee\xe3^\x92\xb4s\xa4\xfc\xce\x06\xc0\xc6\x18G\xa4&\xdbH\xfc\xcc%\xaf0\xc5(\xd3\xa4\x1e\xde(,"\xc3\x95\x14\x9c\x12\x8a\x86\xb7\xc7\xc7{[\x90t\x1d\xedR\x01[&\xac\xd0n\xf8\xc8\x89\xc9\x8e7\xc9\x85fECV\xd2\x18@\xd9\xae43\xc8m\xdb!\xbc\x116_\x87\x96\xd1\xb4\x01w\xfa\xb2\xc3\x9a#|f\xdfv&\xe6\x0c?l\xf6>\xc1\x94\xe9\xe5\x84z\x9c\x1e\x98\x1f\xe6\xfe\x85\xfbs\x84|14\x0b\xda\x07\x17\xea\x88\xb5\xea\xac7Z|\xf3|vQ\x87\x8aE!\xd4M-G\x86\xf8\xe4\x96\x18\x02\xc8\rD\xd6\x1c\xd9\x0b\xc9\x1f\x06KZ\x85%\r\xda\x8a\x0f\xb2t\x95\n\xaa\xf7K0\xe39\xd6\xc8;\x9bq\xdf\x86\xa7\xc0\xb2K\xb8P\x0b\xd3\xb6J\xa5ab\xe1\xc2 \xf2,\x0f&Y\x020&\x93\xe3\xb1\x1e\xdd\xca\x99\x81\xf5\x15\xc44\xe5\x04c\xabh\xd9b\xd45\xd4\xedif\xf6\x14\xf9t<\xc7\xb6@\x88\x9f\x8c\xb9l\x1f\x9c7B`\x945\xf5A.\xdf\xf9;Td\xa6-\xf25\x17d?\xaa\x1a\x7fo\x8c:\xca\xa4\xbb\xc2\xab\xc8\x0f\xc7\xabd=R[\x83\xd65\xd7\xb1*s\x89/]\xa4u\x10\xff\xee\x13\x12\x98\xf7\x89\x0e\x9a\xadT\xea\xdb\t+=\x07\xaf\x1dGY\xf6^\xa0\xd0\xb5hm\x9f]\x05\x9e\xc1\xed\xe0\x89\x9a\xef\x0f7\x1e+\x93\x00\x8dj:\xd5\xdd\n\x05\xe2\xa7%8W{\x98\xc1\x02\x98\xc3^\'\xdaVx\no/I4\xfa\xa7\xfa\xa4}Y\xcem\xac6\xba+\x0e\xb2\xcf\xdc\xd7_\x1a7\xbc\xb0z\xf6B8\x04\xe9U3|{\xf6\xbfwI\x97\x1d\xb9\x1d\x17\xc5\x9e/U\xf8\xf4h\x1d\xb9X\xdd\x7f\xad\r\xa7\xae~Z1K\x05\xcb\x92\x98\x15{\xbb\x14k\xaa\xf1\xf1\x8fH\x95\xb0\xc5\x11\xa7gd\xbb\r(\xaa\x0c\xaf@a\xfe\xbez\x80\xc2\x8c\x0c6\xdb\x86\xb3\x00]\xe5Y\x81\xffE\xebv*o\xff\xb6}R\x89\x0e\xb1\xbdH\x17\x95\xd33H\xf7\x07\x97v\xd0s\xb5Sa\xafn\t\x91\xa7p\x8f&|\xb9\x81\xc6U`d\xe1\x96u2\x9en\xd5\xe2%^\xb6\xe9\xd6\xc9\xfat*\x0b\xf3\xb5\xac\x80\xa3\x9e\xbf\x17V\xcd\xcf\x9e\xbf\xf5\xb0\xcd\xf7W\xf3!\xbf\xec\xad\x0e\n\x00@\xfa\xa7\x8799{X\x9b8\xfd\xe1^\x85*\xdav\x99\xcc\x98\xbe\xb9\x8d \xfd\xc7l<\xf3\x91D\xd8\xd2\x14\x04\xa5"\xdb\x8c\x05\xf9\xd5\n\x08\xca\xbac\x84z\xb9T\xebU\xbfs\x96\xf8\xe0\xf2y\xce*\xa6\x87\xac\x81K\xb7n\'\'O\xa7xp~\x16\xa36\xb5w\xb1\xd5"\xd1i\xb4.C\xdf\x19\x07\xf4\x88#\xf5C\x13\\TTU\xcc\x87X\xbd\x8d\xb1\xb7\xf6\xcf\xb7\x8a\x16\t\xa1:\xb6\xd8\x0eP\x85\xa83w\xba\x9c&\x03Q\xb5\xcf\xd2\x0b\xef\xa4\xb9d\xfbr\xb5\xf0\xa5\x08KM%\xac\x8dp\xab*{\xc8\xa1"\x06\xec\xa5\xc9\x81\xf0\xf7\xb0\x08\x9ao\x08\xe1\x85\x07u6\x81J\xe3\xa1<\xdd\xc0\xc0\x0e\xa3\xb0\x90\x04z\x9c\x16\xde"\xa4\r\xf8<\xcfp\xcaF>\x03\xb71:\xf7Q\x99\x82\xaa\xea\r\xac^4\x9d\xa5N\xe3\x1a\xcd\xa9\xd1,\x80R\xce\xa2\x16w\x94\xf4\x06-L\x13\xb89\xb1\xc1e\xe9\x8d\x9b\xea\x83\xde\xe6\xb2\x17\xb0\xec5 \xa7\x14 \x13,\x95\x93\xa2e\x1eD\xa0\x02\x1d\xee\x82-Fq\xc2\xaf\xa6rQ\xb5\xb3YU\x9c\x18ed\x17\xdb\xf5\x95\xee`\x9b\x8a\xbb\xf0 f\xf0\x1a\x17\x19!\xb5\x15\xd5L\xad\x8e\n\x10\xca\x17r\xfc\xc1T\x05\x0c\x1eo?\xcc\x08b\x07\x8b\xbd>\xec\xe8\xe5m\xb7\x8b\xed\x06wh\xf4\x07\xf8\x11\xf8\xc1\x91Z&<\xf4\xa1R\\\x12\x8d\x02T\x05!*\x87w\xcb}\xc9<\x92w\xcb*w\xa9c\x8eZ\xd6Yc~\x7f\xc9\\P\x16\x94d\x89\xb1\xc8\xfa\xf3\xce\x93ZO\xaf\xc0\x82dS}\xfcY\xf3\x18st\x19S\xbfT\xb0(t\xdd\xf0\tV\x9c\xa0\xf8I\xdd\x16b\x14\xf2\xad\x8c\xb7\x10\xc1\xac\xaf\xf0\x13\x01\xd1\xa3\xaf\xd9C\xc3\x164X\x12\x9bP\x9e\xcdx\xc8\xde1W0X\x03\xcfgi\xd4\'\xe4\x0f\x82+:\x0eS\x9f\xf2\xd0\xb1*,\xe8\xd6\x07\x1e\xcdB\x99\xae\xa8\xd4.\xd5\xbe\x99\xd50\xbdHu \x93\r\xe0<N\xb9\xd1f<\xe1\x9en\x9f\xd1G\xe3d\x95r\xf0\r\x08r\x8d\xa3\\\xdf\x16\x87\x07i\xb6fA%Y\xa5@^\x1b\xb7!\'\x8eZ\xb6\xe9\xe2\\3#\xab\xf7\x88G\xdd\x85r\x9c\xe4\x04\xf1\x85\x0cii\x80\x8d\x9b\x87\x1a\x87a\x9e35#\xc6}\xc9\xf1\xe5*\x10\xf2\x9a\xf0!R\x18\x88\x93\xc2\x84\x1er\xc1\x85J\xa2\xc9\x86j8rA\xc7\x94\xc2\xac)I\x02R\xd2$\xa2\xdd\xef\x83Z%H#\xf2\xdf\x18\xae\xf7\x93B\xf6\x12\xe1\xaa\xe5\xbbx\\\xcc\xadC(\x03\x9e\xc2\xc8G\xca0\xf6\xaf\x16\x0f\xa6\xff\x96\xafc{b\x9d\x9e`\x00@\xde/\xce\xe2\xfe\xb9\x91\xe8dnb\xe2\xec\xc4\xf4\x8f\xa7\x7f4^\xd1\x89\xe3\xb6t\xa4\x88\xa1\xf7\xc9O\xc8\xe1>aR\xe71\xace\xb4b\xdf\x8f\xf2%T\xed\xbcB/\'\xf2\x00D\x01Ns\x9d>H\x16S\x94\x99g\xd6\xbd\xb9\xaf\xcff\x0e `\xf6\x03\x0c\x8b&bL\x96j\x13&*\xa2+\'b\xcc\x8b\xbb\x1f_G2Y\x02r\xb6+n^\x02\xaf\xe4\x95\xaf\x87g\xfd\xb2\xe1\xe7\x124\x7fH\x0c\x11\xcb}I\xf6\xc9diS\xc8\x1a\xe5\x10\x0c\xc8\xee#\x16O\xb9\xaco\xc2E4\x81g\xd2\tn\xc7\x9d\xd55\xc9K\x9c#\xfc\x06D~\x03\xbd\xdd-\xd0j\xe6\x9cD\xe0?I\xd1\xb2(s\x04c\\\xa5a2\xb8z\xfa<\x08\x972\x8f&\xf2rqg\xb5\xcc,\xd4\xf3\x94\xdc\xd9\xfc\xf0\xc0\xc57x\x16_9:\x16\x0ez\x19G\xd16\xb51X\x0c\x14\xb0\xf6\x16|g\x8c&\xdd\x8e\xe5Y,\xda\xa8\xbd\xdc#\x02S\x91\xfc\x9a\x0e\x89\xec<\xb2\xd9\xcaR\xa2\xa6\xea\xdb\xad#\xc2g\xb8\xae\xbe\x12\xa4\x04* \xac\xdd(g\x19\t\xb7\xfb@\xc0\x84\xe6\x19\x81\nG\xba\x1b\xc3O\xbc\x1f\x07%\\\x0e\xca\nV\x87w\x11Z\xce\xf3\x96\xf0%jZ_!\\q#H\xd5+\xd9\xc6\xb3\xdd:\xb0\xc8\x07\xbcL\x7f\xfd\x99N\x96\x82j\x9c+\xe4\xce\xb9\x01L\xf3 s\x92\xef\xe41\xd5\xd8\x16\x86{\xc9\xea8\xc8~\x00\xae\xe2\x8b7K\x06\xbf\xc5\xc7\xbc`\xf8\x13\xd6T \xd0x\x8a\xf2\x90{\xac\x82\xfc\xac\x1e\x91\xfe\xeez]\x92\xb8\xd4\x92\xff\xba^h\xe0\x7fl\xb7\xd1\x81\x19\xdb\x19):\xda\xd9;1\x19\xd99\x9a\xfc3\x07G\xf5\xdf\xcc\xc0\xff\x1b\xa2\x13\xf8\xad\x06\x98QC\xefE@A\xb3\xb62\x91\xa30\xfd\xae\xa1)\xb2\x0c\x98\xc7ssr\x92\xa9\xa2\x0b\x89!\x85\x8b\xa3=5\xbb\x1fbI\ty"\xef\xdb\x0e\xcf\x9c\x87\x9e\xf22\xf7a\xb2\xd4\xabh\xd0&a\xa5{\xc3\xd5h\x1b\xe8f\xb5\xbb\xa4\xd4\xa9/\x03\xf0G3\x17\x85"b\xb7g\xdb\xdb{\xe8\x82M\xf2].v\xb5\x10\x18\xa9/\xa4\xd8\xdfM\x073\xcc\n@\x8e3\xdf\x19\xa2d<\xd3\xa3S\x86\xae-Z\x10\xed\xce\xff\xac\x05\xeeF\x9d\x03\xa6a5\xf5\x91\x02d\x88>\x08\xc0)\xf3\xe2\xcd\xe6}1TY\xb5[\xba\x01\xa7af\xcf\xeb\x83\x8c\xb3\x10\xbfLF\xdan\x045\xe4)P\x16\xaa\xed\x98\xef\xc9\x0f\xb4*\xb7`\x1e\xda\x17\xa2\xe8\xc6\xe8/\xb9h\xa6\xde\x1b\r>\xd2\xbc\xb9\xfbz\xfeT\x97K\xe6~M\x06\xa8`)\xdd\xfcL\xb3\xef\x85\x18!\x87_n\xdb\xa0\xf0\x98&&:A*7\rfT\xae\x97\xb6\xd0\x9d\xc7\xcadz\x97\xee\x87\xfd \x82t\xab\xfe5vx\xa5\x1c\x84g\xc6\xfd>\x18\x18\x15qIV\n\xef\xed4x\x8c\xf3\xb7\xee&\x8c\xbd\x12\xf9\x07\xfb \x00\x00T\x00\xec\x9f\xec3\xb0\xb7\xff\xdf\x10\xe6\x7f\xc9\xf7\x0bY\x89\xc2\x7f\xe4/B\xce!\xee\x88\x117\xf0\xb97x\x10\x03*\r%\xb9nj\r\xc1\x12]\xcd\xe4\x8a\x8d\xbe\xd6\x93\x87W&\x9c.\xc55\xcf.Xx\xad\xc6\xec{\xb9?\x89J\xe9\x10\xf3\xe8\xdd\xc4\xcf\x0e)F\x00\xf31\xa1 \xf1\xadp\xee\x92[\xb7^[\x1fh\xe1\xc91,\xf7\x8c\xfc\xa5\t\xc0\x86\x9a\xde\x1e\x84m\x1ce\xe3G\xc1\xb0\t\xd0j\xd1\x19>iIE4\x87Lm\x07\x02{\xa51\x9c\xcc\xc2\xd7:S\xeb,\xb2B2\xcdsy`\xc9\x99\xc6\xaf\xa2\x82!\x84K\xbfvK\x96\x08\xb1PT{>m\xcd\xf0\xac\x06\xa0\x10\xbb\x0e\x0f\xf6j\xf9\xc8\x8c\xf2Z\x85\xdb\x95\x9dgM\xa2\x19}\x1c\xba\x0f\x82\xaa\xd9\xff\xac"\xdb\x02\xf5\xfc\x85\x90\xd0\xa5l\xbfSU\xdb\x8a\xaf\x92[\x83\xeb\xdb{\xeaGV\xc5\x16\xfd\xd0"\x9b\xe8\xf1RU\x85\n"\xfa\xa1\xcfy\xcf\xe3V\x1d\x98C\xc4A\xcc\xdb*\xf9\\+\xe9B\xd1\x1c\xcb\xc5\xa6\x95>"cOn\x13q\xcb\xe0\xa8\xb4\xa3\xa1\x16\x1fR\x9c\xce;]so\x1d\xd9\xed\x1dl\t\xc0)Q\xb1\xa7\xd0\xdcb\xf9\xb6kL\x8dX\xbb>vfa\xc4!b\x9c\x077\x10>\x14\xb3\x1dz\xef%?\x16\xaa\xaf\x9c,S`\xc4\xd2g\x95\xe72\xf2\xed\xfa\xac\x0e\xe1\x7f\xbc\xe8\x9c\xba\xfe\xba\xdaL\xf9q\x92\xc9^\xeb\xde"\xcf\xd6#i\x05\x85\xf4d1\x98\x7fa:\xa7\xa5\xff\xe2\x01e\x1eei\xbcB\xec\xb1l\xdf-{\xf2\x8b\xf7\xe3\xf8\x13\xf1\xffu;0p\x06\xc0\x7fJ\x12\xff\x8e\xbf\xc9\x15\xff^\xe0_#\x8e\x7fE\xe9/Q\xfc%\xf0\xf8\xfb\xc4\x7f\x8d}\xfd\x15\x93\xd0\xff\xf0\xdd\xff\x10\x02\xfb\xbd\xce\xef\xd1\x9f?\x81\x06\xf7oA\xa0\xdf\'\xff\x9e\xd6\xf8\x13\x99\x08\x7f\x93\xdd\xf8}\xfa\xef+4\x7f\xe2\x00\xffo\xd7k~/\xf0{{\xfc\'\xca\xc9~k\x96\x7f\x9f\xfa{\xa7\xf2\'\xb4(\xfes\xdf\xf2{\x95\x7f\xf5\xcf\xbf\x02\x9e\n\x00\xf877\xfd\xb7\xef\xff/7\xc0\xbf"\x9c\xe6/\xd3\xff\xf7v\xa8(\x03\x05\xfd\x8f\xd2\xbf\x1e>\xbf>P\x92\xfe\x8fW\xff\x03<\xc5\x90\x88\xdb.\x00\x00'
p19
sa(dp20
S'Q'
p21
S'NAME:Wayne Marsh (@infogroke) - A particularly inept encryption scheme has been devised to protect a plain-text message. A key is chosen using a particular numeric base and each character is XORed with the integer value of that key. Each character in that result is then XORed again with the numerical base the key is in to produce the final encrypted message. The question data supplies some text encrypted with this scheme, and a string containing the key. Recover the plaintext and supply your answer as a tuple with the first entry containing the plaintext and the second entry containing an integer with the base of the key. Note: the key is not in binary, decimal, hexadecimal or octal base.'
p22
sS'A'
p23
(S'all_your_base_are_belong_to_us'
p24
I28
tp25
sS'D'
p26
(S'GJJy_ISTyDGUCyGTCyDCJIHAyRIySU'
p27
S'22'
p28
tp29
sa(dp30
S'Q'
p31
S'Pieter-Jan Moreels (@PidgeyL) - You\'re dealing with a bunch of unstructured data. The only thing you know, is that the payload is separated over multiple dictionaries, as a string object, with the key "data". The server will give you this data in an incorrect JSON format. Send the payload back to the server, as a single string, in the order of the JSON.'
p32
sS'A'
p33
S'We want you to bring us a shrubbery'
p34
sS'D'
p35
S"{'unstructured': [{'a key': 'a val','another key': ['more keys', 'data', {'data': 'We want '}]}, {'data': {'data': 'you to '}}],'more data': 'give us ','data': {'a key': 'like us ','data': 'bring us','another key': ['a rabbit', 'a swallow', {'data': {'key': 'a coconut','data': 'a shrubbery'}}]}}"
p36
sa.